

Microchip MPLAB XC8 Assembler V2.45 build 20230818022343 
                                                                                               Tue Sep 17 16:47:23 2024

Microchip MPLAB XC8 C Compiler v2.45 (Free license) build 20230818022343 Og1 
     1                           	processor	18F4620
     2                           	fnconf	rparam,??,?,0
     3                           	pagewidth 120
     4                           	opt	flic
     5                           	psect	idataCOMRAM,global,class=CODE,delta=1,noexec
     6                           	psect	smallconst,global,reloc=2,class=SMALLCONST,delta=1,noexec
     7                           	psect	nvCOMRAM,global,class=COMRAM,space=1,delta=1,lowdata,noexec
     8                           	psect	cinit,global,reloc=2,class=CODE,delta=1
     9                           	psect	bssCOMRAM,global,class=COMRAM,space=1,delta=1,lowdata,noexec
    10                           	psect	dataCOMRAM,global,class=COMRAM,space=1,delta=1,lowdata,noexec
    11                           	psect	bssBANK0,global,class=BANK0,space=1,delta=1,lowdata,noexec
    12                           	psect	cstackCOMRAM,global,class=COMRAM,space=1,delta=1,lowdata,noexec
    13                           	psect	text0,global,reloc=2,class=CODE,delta=1
    14                           	psect	text1,global,reloc=2,class=CODE,delta=1
    15                           	psect	text2,global,reloc=2,class=CODE,delta=1
    16                           	psect	text3,global,reloc=2,class=CODE,delta=1
    17                           	psect	text4,global,reloc=2,class=CODE,delta=1
    18                           	psect	text5,global,reloc=2,class=CODE,delta=1
    19                           	psect	text6,global,reloc=2,class=CODE,delta=1
    20                           	psect	text7,global,reloc=2,class=CODE,delta=1
    21                           	psect	text8,global,reloc=2,class=CODE,delta=1
    22                           	psect	text9,global,reloc=2,class=CODE,delta=1
    23                           	psect	text10,global,reloc=2,class=CODE,delta=1
    24                           	psect	text11,global,reloc=2,class=CODE,delta=1
    25                           	psect	text12,global,reloc=2,class=CODE,delta=1,group=2
    26                           	psect	text13,global,reloc=2,class=CODE,delta=1
    27                           	psect	text14,global,reloc=2,class=CODE,delta=1
    28                           	psect	text15,global,reloc=2,class=CODE,delta=1
    29                           	psect	text16,global,reloc=2,class=CODE,delta=1
    30                           	psect	text17,global,reloc=2,class=CODE,delta=1
    31                           	psect	text18,global,reloc=2,class=CODE,delta=1
    32                           	psect	text19,global,reloc=2,class=CODE,delta=1
    33                           	psect	text20,global,reloc=2,class=CODE,delta=1
    34                           	psect	text21,global,reloc=2,class=CODE,delta=1
    35                           	psect	text22,global,reloc=2,class=CODE,delta=1,group=3
    36                           	psect	text23,global,reloc=2,class=CODE,delta=1,group=1
    37                           	psect	text24,global,reloc=2,class=CODE,delta=1,group=1
    38                           	psect	text25,global,reloc=2,class=CODE,delta=1,group=3
    39                           	psect	text26,global,reloc=2,class=CODE,delta=1,group=3
    40                           	psect	text27,global,reloc=2,class=CODE,delta=1,group=3
    41                           	psect	text28,global,reloc=2,class=CODE,delta=1,group=2
    42                           	psect	text29,global,reloc=2,class=CODE,delta=1,group=2
    43                           	psect	text30,global,reloc=2,class=CODE,delta=1,group=3
    44                           	psect	intsave_regs,global,class=BIGRAM,space=1,delta=1,noexec
    45                           	psect	rparam,global,class=COMRAM,space=1,delta=1,noexec
    46   000000                     
    47                           ; Generated 23/03/2023 GMT
    48                           ; 
    49                           ; Copyright © 2023, Microchip Technology Inc. and its subsidiaries ("Microchip")
    50                           ; All rights reserved.
    51                           ; 
    52                           ; This software is developed by Microchip Technology Inc. and its subsidiaries ("Microch
      +                          ip").
    53                           ; 
    54                           ; Redistribution and use in source and binary forms, with or without modification, are
    55                           ; permitted provided that the following conditions are met:
    56                           ; 
    57                           ;     1. Redistributions of source code must retain the above copyright notice, this lis
      +                          t of
    58                           ;        conditions and the following disclaimer.
    59                           ; 
    60                           ;     2. Redistributions in binary form must reproduce the above copyright notice, this 
      +                          list
    61                           ;        of conditions and the following disclaimer in the documentation and/or other
    62                           ;        materials provided with the distribution. Publication is not required when
    63                           ;        this file is used in an embedded application.
    64                           ; 
    65                           ;     3. Microchip's name may not be used to endorse or promote products derived from th
      +                          is
    66                           ;        software without specific prior written permission.
    67                           ; 
    68                           ; THIS SOFTWARE IS PROVIDED BY MICROCHIP "AS IS" AND ANY EXPRESS OR IMPLIED WARRANTIES,
    69                           ; INCLUDING, BUT NOT LIMITED TO, THE IMPLIED WARRANTIES OF MERCHANTABILITY AND FITNESS F
      +                          OR
    70                           ; PURPOSE ARE DISCLAIMED.  IN NO EVENT SHALL MICROCHIP BE LIABLE FOR ANY DIRECT, INDIREC
      +                          T,
    71                           ; INCIDENTAL, SPECIAL, EXEMPLARY, OR CONSEQUENTIAL DAMAGES (INCLUDING BUT NOT LIMITED TO
    72                           ; PROCUREMENT OF SUBSTITUTE GOODS OR SERVICES; LOSS OF USE, DATA OR PROFITS; OR BUSINESS
    73                           ; INTERRUPTION) HOWSOEVER CAUSED AND ON ANY THEORY OF LIABILITY, WHETHER IN CONTRACT, ST
      +                          RICT
    74                           ; LIABILITY, OR TORT (INCLUDING NEGLIGENCE OR OTHERWISE) ARISING IN ANY WAY OUT OF THE U
      +                          SE OF
    75                           ; THIS SOFTWARE, EVEN IF ADVISED OF THE POSSIBILITY OF SUCH DAMAGE.
    76                           ; 
    77                           ; 
    78                           ; Code-generator required, PIC18F4620 Definitions
    79                           ; 
    80                           ; SFR Addresses
    81   000000                     
    82                           	psect	idataCOMRAM
    83   002174                     __pidataCOMRAM:
    84                           	callstack 0
    85                           
    86                           ;initializer for _port_reg
    87   002174  80                 	db	128
    88   002175  0F                 	db	15
    89   002176  81                 	db	129
    90   002177  0F                 	db	15
    91   002178  82                 	db	130
    92   002179  0F                 	db	15
    93   00217A  83                 	db	131
    94   00217B  0F                 	db	15
    95   00217C  84                 	db	132
    96   00217D  0F                 	db	15
    97                           
    98                           ;initializer for _lat_reg
    99   00217E  89                 	db	137
   100   00217F  0F                 	db	15
   101   002180  8A                 	db	138
   102   002181  0F                 	db	15
   103   002182  8B                 	db	139
   104   002183  0F                 	db	15
   105   002184  8C                 	db	140
   106   002185  0F                 	db	15
   107   002186  8D                 	db	141
   108   002187  0F                 	db	15
   109                           
   110                           ;initializer for _tris_reg
   111   002188  92                 	db	146
   112   002189  0F                 	db	15
   113   00218A  93                 	db	147
   114   00218B  0F                 	db	15
   115   00218C  94                 	db	148
   116   00218D  0F                 	db	15
   117   00218E  95                 	db	149
   118   00218F  0F                 	db	15
   119   002190  96                 	db	150
   120   002191  0F                 	db	15
   121                           
   122                           ;initializer for _lcd_2
   123   002192  01                 	db	1
   124   002193  09                 	db	9
   125   002194  02                 	db	2
   126   002195  0A                 	db	10
   127   002196  12                 	db	18
   128   002197  1A                 	db	26
   129   002198  22                 	db	34
   130   002199  2A                 	db	42
   131   00219A  32                 	db	50
   132   00219B  3A                 	db	58
   133                           
   134                           ;initializer for _key_pad
   135   00219C  03                 	db	3
   136   00219D  0B                 	db	11
   137   00219E  13                 	db	19
   138   00219F  1B                 	db	27
   139   0021A0  A3                 	db	163
   140   0021A1  AB                 	db	171
   141   0021A2  B3                 	db	179
   142   0021A3  BB                 	db	187
   143                           
   144                           	psect	smallconst
   145   001000                     __psmallconst:
   146                           	callstack 0
   147   001000  00                 	db	0
   148   001001                     _btn_values:
   149                           	callstack 0
   150   001001  37                 	db	55
   151   001002  38                 	db	56
   152   001003  39                 	db	57
   153   001004  2F                 	db	47
   154   001005  34                 	db	52
   155   001006  35                 	db	53
   156   001007  36                 	db	54
   157   001008  2A                 	db	42
   158   001009  31                 	db	49
   159   00100A  32                 	db	50
   160   00100B  33                 	db	51
   161   00100C  2D                 	db	45
   162   00100D  23                 	db	35
   163   00100E  30                 	db	48
   164   00100F  3D                 	db	61
   165   001010  2B                 	db	43
   166   001011                     __end_of_btn_values:
   167                           	callstack 0
   168   000000                     _EECON2	set	4007
   169   000000                     _EEDATA	set	4008
   170   001011                     STR_1:
   171   001011  25                 	db	37
   172   001012  69                 	db	105	;'i'
   173   001013  00                 	db	0
   174   001014  00                 	db	0	; dummy byte at the end
   175   000000                     
   176                           	psect	nvCOMRAM
   177   00007A                     __pnvCOMRAM:
   178                           	callstack 0
   179   00007A                     _ret:
   180                           	callstack 0
   181   00007A                     	ds	1
   182   00007B                     _num1_digit1:
   183                           	callstack 0
   184   00007B                     	ds	1
   185   000000                     _EECON1bits	set	4006
   186   000000                     _EEADR	set	4009
   187   000000                     _EEADRH	set	4010
   188   000000                     _PORTE	set	3972
   189   000000                     _PORTD	set	3971
   190   000000                     _PORTC	set	3970
   191   000000                     _PORTB	set	3969
   192   000000                     _PORTA	set	3968
   193   000000                     _LATA	set	3977
   194   000000                     _TRISA	set	3986
   195   000000                     _INTCONbits	set	4082
   196   000000                     _TRISE	set	3990
   197   000000                     _TRISD	set	3989
   198   000000                     _TRISC	set	3988
   199   000000                     _TRISB	set	3987
   200   000000                     _LATE	set	3981
   201   000000                     _LATD	set	3980
   202   000000                     _LATC	set	3979
   203   000000                     _LATB	set	3978
   204                           
   205                           ; #config settings
   206                           
   207                           	psect	cinit
   208   002014                     __pcinit:
   209                           	callstack 0
   210   002014                     start_initialization:
   211                           	callstack 0
   212   002014                     __initialization:
   213                           	callstack 0
   214                           
   215                           ; Initialize objects allocated to COMRAM (48 bytes)
   216                           ; load TBLPTR registers with __pidataCOMRAM
   217   002014  0E74               	movlw	low __pidataCOMRAM
   218   002016  6EF6               	movwf	tblptrl,c
   219   002018  0E21               	movlw	high __pidataCOMRAM
   220   00201A  6EF7               	movwf	tblptrh,c
   221   00201C  0E00               	movlw	low (__pidataCOMRAM shr (0+16))
   222   00201E  6EF8               	movwf	tblptru,c
   223   002020  EE00  F034         	lfsr	0,__pdataCOMRAM
   224   002024  EE10 F030          	lfsr	1,48
   225   002028                     copy_data0:
   226   002028  0009               	tblrd		*+
   227   00202A  CFF5 FFEE          	movff	tablat,postinc0
   228   00202E  50E5               	movf	postdec1,w,c
   229   002030  50E1               	movf	fsr1l,w,c
   230   002032  E1FA               	bnz	copy_data0
   231                           
   232                           ; Clear objects allocated to BANK0 (32 bytes)
   233   002034  EE00  F080         	lfsr	0,__pbssBANK0
   234   002038  0E20               	movlw	32
   235   00203A                     clear_0:
   236   00203A  6AEE               	clrf	postinc0,c
   237   00203C  06E8               	decf	wreg,f,c
   238   00203E  E1FD               	bnz	clear_0
   239                           
   240                           ; Clear objects allocated to COMRAM (22 bytes)
   241   002040  EE00  F064         	lfsr	0,__pbssCOMRAM
   242   002044  0E16               	movlw	22
   243   002046                     clear_1:
   244   002046  6AEE               	clrf	postinc0,c
   245   002048  06E8               	decf	wreg,f,c
   246   00204A  E1FD               	bnz	clear_1
   247   00204C                     end_of_initialization:
   248                           	callstack 0
   249   00204C                     __end_of__initialization:
   250                           	callstack 0
   251   00204C  0E00               	movlw	low (__Lmediumconst shr (0+16))
   252   00204E  6EF8               	movwf	tblptru,c
   253   002050  0100               	movlb	0
   254   002052  EF0B  F008         	goto	_main	;jump to C main() function
   255                           
   256                           	psect	bssCOMRAM
   257   000064                     __pbssCOMRAM:
   258                           	callstack 0
   259   000064                     	ds	6
   260   00006A                     _width:
   261                           	callstack 0
   262   00006A                     	ds	2
   263   00006C                     _prec:
   264                           	callstack 0
   265   00006C                     	ds	2
   266   00006E                     _result:
   267                           	callstack 0
   268   00006E                     	ds	2
   269   000070                     _flags:
   270                           	callstack 0
   271   000070                     	ds	1
   272   000071                     _value:
   273                           	callstack 0
   274   000071                     	ds	1
   275   000072                     _str:
   276                           	callstack 0
   277   000072                     	ds	2
   278   000074                     _off:
   279                           	callstack 0
   280   000074                     	ds	1
   281   000075                     _assignment_operator:
   282                           	callstack 0
   283   000075                     	ds	1
   284   000076                     _operator:
   285                           	callstack 0
   286   000076                     	ds	1
   287   000077                     _num2_digit2:
   288                           	callstack 0
   289   000077                     	ds	1
   290   000078                     _num1_digit2:
   291                           	callstack 0
   292   000078                     	ds	1
   293   000079                     _num2_digit1:
   294                           	callstack 0
   295   000079                     	ds	1
   296                           
   297                           	psect	dataCOMRAM
   298   000034                     __pdataCOMRAM:
   299                           	callstack 0
   300   000034                     _port_reg:
   301                           	callstack 0
   302   000034                     	ds	10
   303   00003E                     _lat_reg:
   304                           	callstack 0
   305   00003E                     	ds	10
   306   000048                     _tris_reg:
   307                           	callstack 0
   308   000048                     	ds	10
   309   000052                     _lcd_2:
   310                           	callstack 0
   311   000052                     	ds	10
   312   00005C                     _key_pad:
   313                           	callstack 0
   314   00005C                     	ds	8
   315                           
   316                           	psect	bssBANK0
   317   000080                     __pbssBANK0:
   318                           	callstack 0
   319   000080                     _dbuf:
   320                           	callstack 0
   321   000080                     	ds	32
   322                           
   323                           	psect	cstackCOMRAM
   324   000001                     __pcstackCOMRAM:
   325                           	callstack 0
   326   000001                     ?___awdiv:
   327                           	callstack 0
   328   000001                     ?___awmod:
   329                           	callstack 0
   330   000001                     gpio_pin_direction_initialize@_pin_config:
   331                           	callstack 0
   332   000001                     gpio_pin_write_logic@_pin_config:
   333                           	callstack 0
   334   000001                     gpio_pin_read_logic@_pin_config:
   335                           	callstack 0
   336   000001                     ___lbdiv@divisor:
   337                           	callstack 0
   338   000001                     memset@dest:
   339                           	callstack 0
   340   000001                     ___awdiv@dividend:
   341                           	callstack 0
   342   000001                     ___awmod@dividend:
   343                           	callstack 0
   344   000001                     fputc@c:
   345                           	callstack 0
   346                           
   347                           ; 2 bytes @ 0x0
   348   000001                     	ds	1
   349   000002                     ??_gpio_pin_direction_initialize:
   350   000002                     gpio_pin_write_logic@logic:
   351                           	callstack 0
   352   000002                     gpio_pin_read_logic@logic:
   353                           	callstack 0
   354   000002                     ___lbdiv@dividend:
   355                           	callstack 0
   356   000002                     memset@c:
   357                           	callstack 0
   358                           
   359                           ; 2 bytes @ 0x1
   360   000002                     	ds	1
   361   000003                     ??_gpio_pin_write_logic:
   362   000003                     ??_gpio_pin_read_logic:
   363   000003                     ___lbdiv@counter:
   364                           	callstack 0
   365   000003                     fputc@fp:
   366                           	callstack 0
   367   000003                     ___awdiv@divisor:
   368                           	callstack 0
   369   000003                     ___awmod@divisor:
   370                           	callstack 0
   371                           
   372                           ; 2 bytes @ 0x2
   373   000003                     	ds	1
   374   000004                     ??_fputc:
   375   000004                     ___lbdiv@quotient:
   376                           	callstack 0
   377   000004                     memset@n:
   378                           	callstack 0
   379                           
   380                           ; 2 bytes @ 0x3
   381   000004                     	ds	1
   382   000005                     ___awdiv@counter:
   383                           	callstack 0
   384   000005                     ___awmod@counter:
   385                           	callstack 0
   386                           
   387                           ; 1 bytes @ 0x4
   388   000005                     	ds	1
   389   000006                     ___awdiv@sign:
   390                           	callstack 0
   391   000006                     ___awmod@sign:
   392                           	callstack 0
   393   000006                     memset@p:
   394                           	callstack 0
   395                           
   396                           ; 1 bytes @ 0x5
   397   000006                     	ds	1
   398   000007                     ?_abs:
   399                           	callstack 0
   400   000007                     gpio_pin_direction_initialize@ret:
   401                           	callstack 0
   402   000007                     gpio_pin_read_logic@ret:
   403                           	callstack 0
   404   000007                     ___awdiv@quotient:
   405                           	callstack 0
   406   000007                     abs@a:
   407                           	callstack 0
   408                           
   409                           ; 2 bytes @ 0x6
   410   000007                     	ds	1
   411   000008                     gpio_pin_write_logic@ret:
   412                           	callstack 0
   413                           
   414                           ; 1 bytes @ 0x7
   415   000008                     	ds	1
   416   000009                     ??_abs:
   417   000009                     keypad_get_value@_keypad_obj:
   418                           	callstack 0
   419   000009                     lcd_8bits_sned_enable_signal@lcd:
   420                           	callstack 0
   421   000009                     gpio_pin__initialize@_pin_config:
   422                           	callstack 0
   423                           
   424                           ; 1 bytes @ 0x8
   425   000009                     	ds	1
   426   00000A                     ??_gpio_pin__initialize:
   427   00000A                     keypad_get_value@value:
   428                           	callstack 0
   429   00000A                     lcd_8bits_sned_enable_signal@ret:
   430                           	callstack 0
   431                           
   432                           ; 1 bytes @ 0x9
   433   00000A                     	ds	1
   434   00000B                     ??_keypad_get_value:
   435   00000B                     lcd_8bit_send_command@lcd:
   436                           	callstack 0
   437   00000B                     lcd_8bit_send_char_data@lcd:
   438                           	callstack 0
   439   00000B                     gpio_pin__initialize@ret:
   440                           	callstack 0
   441   00000B                     vfpfcnvrt@fp:
   442                           	callstack 0
   443                           
   444                           ; 1 bytes @ 0xA
   445   00000B                     	ds	1
   446   00000C                     keypad_initialize@_keypad_obj:
   447                           	callstack 0
   448   00000C                     keypad_get_value@column_logic:
   449                           	callstack 0
   450   00000C                     lcd_8bit_send_command@command:
   451                           	callstack 0
   452   00000C                     lcd_8bit_send_char_data@data:
   453                           	callstack 0
   454   00000C                     vfpfcnvrt@fmt:
   455                           	callstack 0
   456                           
   457                           ; 1 bytes @ 0xB
   458   00000C                     	ds	1
   459   00000D                     ??_lcd_8bit_send_command:
   460   00000D                     ??_lcd_8bit_send_char_data:
   461   00000D                     keypad_initialize@rows_counter:
   462                           	callstack 0
   463   00000D                     keypad_get_value@l_counter:
   464                           	callstack 0
   465   00000D                     vfpfcnvrt@ap:
   466                           	callstack 0
   467                           
   468                           ; 1 bytes @ 0xC
   469   00000D                     	ds	1
   470   00000E                     ??_vfpfcnvrt:
   471   00000E                     keypad_initialize@columns_counter:
   472                           	callstack 0
   473   00000E                     keypad_get_value@l_rows_counter:
   474                           	callstack 0
   475                           
   476                           ; 1 bytes @ 0xD
   477   00000E                     	ds	1
   478   00000F                     keypad_get_value@l_columns_counter:
   479                           	callstack 0
   480   00000F                     lcd_8bit_send_command@ret:
   481                           	callstack 0
   482   00000F                     lcd_8bit_send_char_data@ret:
   483                           	callstack 0
   484   00000F                     vfpfcnvrt@done:
   485                           	callstack 0
   486                           
   487                           ; 1 bytes @ 0xE
   488   00000F                     	ds	1
   489   000010                     lcd_8bit_send_command@l_pin_counter:
   490                           	callstack 0
   491   000010                     lcd_8bit_send_char_data@l_pin_counter:
   492                           	callstack 0
   493   000010                     vfpfcnvrt@cp:
   494                           	callstack 0
   495                           
   496                           ; 1 bytes @ 0xF
   497   000010                     	ds	1
   498   000011                     lcd_8bit_initialize@lcd:
   499                           	callstack 0
   500   000011                     lcd_8bit_send_string@lcd:
   501                           	callstack 0
   502   000011                     lcd_8bits_set_cursor@lcd:
   503                           	callstack 0
   504   000011                     vfpfcnvrt@convarg:
   505                           	callstack 0
   506                           
   507                           ; 4 bytes @ 0x10
   508   000011                     	ds	1
   509   000012                     ??_lcd_8bit_initialize:
   510   000012                     lcd_8bit_send_string@str:
   511                           	callstack 0
   512   000012                     lcd_8bits_set_cursor@row:
   513                           	callstack 0
   514                           
   515                           ; 1 bytes @ 0x11
   516   000012                     	ds	1
   517   000013                     lcd_8bit_initialize@l_data_pins_counter:
   518                           	callstack 0
   519   000013                     lcd_8bit_send_string@ret:
   520                           	callstack 0
   521   000013                     lcd_8bits_set_cursor@column:
   522                           	callstack 0
   523                           
   524                           ; 1 bytes @ 0x12
   525   000013                     	ds	1
   526   000014                     ??_lcd_8bits_set_cursor:
   527   000014                     lcd_8bit_initialize@ret:
   528                           	callstack 0
   529                           
   530                           ; 1 bytes @ 0x13
   531   000014                     	ds	1
   532   000015                     vfpfcnvrt@c:
   533                           	callstack 0
   534                           
   535                           ; 1 bytes @ 0x14
   536   000015                     	ds	1
   537   000016                     ?_vfprintf:
   538                           	callstack 0
   539   000016                     lcd_8bits_set_cursor@ret:
   540                           	callstack 0
   541   000016                     vfprintf@fp:
   542                           	callstack 0
   543                           
   544                           ; 1 bytes @ 0x15
   545   000016                     	ds	1
   546   000017                     lcd_8bit_send_char_data_pos@lcd:
   547                           	callstack 0
   548   000017                     lcd_8bit_send_string_pos@lcd:
   549                           	callstack 0
   550   000017                     vfprintf@fmt:
   551                           	callstack 0
   552                           
   553                           ; 1 bytes @ 0x16
   554   000017                     	ds	1
   555   000018                     lcd_8bit_send_char_data_pos@row:
   556                           	callstack 0
   557   000018                     lcd_8bit_send_string_pos@row:
   558                           	callstack 0
   559   000018                     vfprintf@ap:
   560                           	callstack 0
   561                           
   562                           ; 1 bytes @ 0x17
   563   000018                     	ds	1
   564   000019                     lcd_8bit_send_char_data_pos@column:
   565                           	callstack 0
   566   000019                     lcd_8bit_send_string_pos@column:
   567                           	callstack 0
   568   000019                     vfprintf@cfmt:
   569                           	callstack 0
   570                           
   571                           ; 1 bytes @ 0x18
   572   000019                     	ds	1
   573   00001A                     ?_sprintf:
   574                           	callstack 0
   575   00001A                     lcd_8bit_send_char_data_pos@data:
   576                           	callstack 0
   577   00001A                     lcd_8bit_send_string_pos@str:
   578                           	callstack 0
   579   00001A                     sprintf@s:
   580                           	callstack 0
   581                           
   582                           ; 1 bytes @ 0x19
   583   00001A                     	ds	1
   584   00001B                     lcd_8bit_send_char_data_pos@ret:
   585                           	callstack 0
   586   00001B                     lcd_8bit_send_string_pos@ret:
   587                           	callstack 0
   588   00001B                     sprintf@fmt:
   589                           	callstack 0
   590                           
   591                           ; 1 bytes @ 0x1A
   592   00001B                     	ds	3
   593   00001E                     sprintf@ap:
   594                           	callstack 0
   595                           
   596                           ; 1 bytes @ 0x1D
   597   00001E                     	ds	1
   598   00001F                     sprintf@f:
   599                           	callstack 0
   600                           
   601                           ; 12 bytes @ 0x1E
   602   00001F                     	ds	12
   603   00002B                     convert_int_to_string@value:
   604                           	callstack 0
   605                           
   606                           ; 2 bytes @ 0x2A
   607   00002B                     	ds	2
   608   00002D                     convert_int_to_string@str:
   609                           	callstack 0
   610                           
   611                           ; 1 bytes @ 0x2C
   612   00002D                     	ds	1
   613   00002E                     convert_int_to_string@ret:
   614                           	callstack 0
   615                           
   616                           ; 1 bytes @ 0x2D
   617   00002E                     	ds	1
   618   00002F                     ??_Div_operation:
   619   00002F                     Add_operation@num1:
   620                           	callstack 0
   621   00002F                     Sub_operation@num1:
   622                           	callstack 0
   623   00002F                     Mult_operation@num1:
   624                           	callstack 0
   625                           
   626                           ; 1 bytes @ 0x2E
   627   00002F                     	ds	1
   628   000030                     Add_operation@num2:
   629                           	callstack 0
   630   000030                     Sub_operation@num2:
   631                           	callstack 0
   632   000030                     Mult_operation@num2:
   633                           	callstack 0
   634   000030                     Div_operation@num1:
   635                           	callstack 0
   636                           
   637                           ; 1 bytes @ 0x2F
   638   000030                     	ds	1
   639   000031                     Div_operation@num2:
   640                           	callstack 0
   641                           
   642                           ; 1 bytes @ 0x30
   643   000031                     	ds	1
   644   000032                     ??_main:
   645                           
   646                           ; 1 bytes @ 0x31
   647   000032                     	ds	2
   648                           
   649 ;;
   650 ;;Main: autosize = 0, tempsize = 2, incstack = 0, save=0
   651 ;;
   652 ;; *************** function _main *****************
   653 ;; Defined at:
   654 ;;		line 20 in file "application.c"
   655 ;; Parameters:    Size  Location     Type
   656 ;;		None
   657 ;; Auto vars:     Size  Location     Type
   658 ;;		None
   659 ;; Return value:  Size  Location     Type
   660 ;;                  2  277[None  ] int 
   661 ;; Registers used:
   662 ;;		wreg, fsr1l, fsr1h, fsr2l, fsr2h, status,2, status,0, tblptrl, tblptrh, tblptru, prodl, prodh, cstack
   663 ;; Tracked objects:
   664 ;;		On entry : 0/0
   665 ;;		On exit  : 0/0
   666 ;;		Unchanged: 0/0
   667 ;; Data sizes:     COMRAM   BANK0   BANK1   BANK2   BANK3   BANK4   BANK5   BANK6   BANK7   BANK8   BANK9  BANK10  BANK1
      +1  BANK12  BANK13  BANK14  BANK15
   668 ;;      Params:         0       0       0       0       0       0       0       0       0       0       0       0       
      +0       0       0       0       0
   669 ;;      Locals:         0       0       0       0       0       0       0       0       0       0       0       0       
      +0       0       0       0       0
   670 ;;      Temps:          2       0       0       0       0       0       0       0       0       0       0       0       
      +0       0       0       0       0
   671 ;;      Totals:         2       0       0       0       0       0       0       0       0       0       0       0       
      +0       0       0       0       0
   672 ;;Total ram usage:        2 bytes
   673 ;; Hardware stack levels required when called: 7
   674 ;; This function calls:
   675 ;;		_Add_operation
   676 ;;		_Div_operation
   677 ;;		_Mult_operation
   678 ;;		_Sub_operation
   679 ;;		_application_initialize
   680 ;;		_keypad_get_value
   681 ;;		_lcd_8bit_send_char_data_pos
   682 ;;		_lcd_8bit_send_command
   683 ;; This function is called by:
   684 ;;		Startup code after reset
   685 ;; This function uses a non-reentrant model
   686 ;;
   687                           
   688                           	psect	text0
   689   001016                     __ptext0:
   690                           	callstack 0
   691   001016                     _main:
   692                           	callstack 24
   693   001016                     
   694                           ;application.c: 21:     application_initialize();
   695   001016  ECFD  F010         	call	_application_initialize	;wreg free
   696   00101A                     l278:
   697                           
   698                           ;application.c: 24:        ret = lcd_8bit_send_command(&lcd_2 , 0x0c);
   699   00101A  0E52               	movlw	low _lcd_2
   700   00101C  6E0B               	movwf	lcd_8bit_send_command@lcd^0,c
   701   00101E  0E0C               	movlw	12
   702   001020  6E0C               	movwf	lcd_8bit_send_command@command^0,c
   703   001022  EC1D  F00E         	call	_lcd_8bit_send_command	;wreg free
   704   001026  6E7A               	movwf	_ret^0,c
   705   001028                     l3023:
   706                           
   707                           ;application.c: 26:         num1_digit1 = 0;
   708   001028  0E00               	movlw	0
   709   00102A  6E7B               	movwf	_num1_digit1^0,c
   710   00102C                     
   711                           ;application.c: 27:         ret = keypad_get_value(&key_pad , &num1_digit1);
   712   00102C  0E5C               	movlw	low _key_pad
   713   00102E  6E09               	movwf	keypad_get_value@_keypad_obj^0,c
   714   001030  0E7B               	movlw	low _num1_digit1
   715   001032  6E0A               	movwf	keypad_get_value@value^0,c
   716   001034  ECF6  F00B         	call	_keypad_get_value	;wreg free
   717   001038  6E7A               	movwf	_ret^0,c
   718   00103A                     
   719                           ;application.c: 29:         }while(num1_digit1 == 0);
   720   00103A  507B               	movf	_num1_digit1^0,w,c
   721   00103C  B4D8               	btfsc	status,2,c
   722   00103E  EF23  F008         	goto	u1971
   723   001042  EF25  F008         	goto	u1970
   724   001046                     u1971:
   725   001046  EF14  F008         	goto	l3023
   726   00104A                     u1970:
   727   00104A                     
   728                           ;application.c: 30:         _delay((unsigned long)((250)*(8000000/4000.0)));
   729   00104A  0E03               	movlw	3
   730   00104C  6E33               	movwf	(??_main+1)^0,c
   731   00104E  0E8A               	movlw	138
   732   001050  6E32               	movwf	??_main^0,c
   733   001052  0E56               	movlw	86
   734   001054                     u2047:
   735   001054  2EE8               	decfsz	wreg,f,c
   736   001056  D7FE               	bra	u2047
   737   001058  2E32               	decfsz	??_main^0,f,c
   738   00105A  D7FC               	bra	u2047
   739   00105C  2E33               	decfsz	(??_main+1)^0,f,c
   740   00105E  D7FA               	bra	u2047
   741   001060                     
   742                           ;application.c: 31:         ret = lcd_8bit_send_char_data_pos(&lcd_2,1,1,num1_digit1);
   743   001060  0E52               	movlw	low _lcd_2
   744   001062  6E17               	movwf	lcd_8bit_send_char_data_pos@lcd^0,c
   745   001064  0E01               	movlw	1
   746   001066  6E18               	movwf	lcd_8bit_send_char_data_pos@row^0,c
   747   001068  0E01               	movlw	1
   748   00106A  6E19               	movwf	lcd_8bit_send_char_data_pos@column^0,c
   749   00106C  C07B  F01A         	movff	_num1_digit1,lcd_8bit_send_char_data_pos@data
   750   001070  EC4A  F010         	call	_lcd_8bit_send_char_data_pos	;wreg free
   751   001074  6E7A               	movwf	_ret^0,c
   752   001076                     
   753                           ;application.c: 32:         _delay((unsigned long)((250)*(8000000/4000.0)));
   754   001076  0E03               	movlw	3
   755   001078  6E33               	movwf	(??_main+1)^0,c
   756   00107A  0E8A               	movlw	138
   757   00107C  6E32               	movwf	??_main^0,c
   758   00107E  0E56               	movlw	86
   759   001080                     u2057:
   760   001080  2EE8               	decfsz	wreg,f,c
   761   001082  D7FE               	bra	u2057
   762   001084  2E32               	decfsz	??_main^0,f,c
   763   001086  D7FC               	bra	u2057
   764   001088  2E33               	decfsz	(??_main+1)^0,f,c
   765   00108A  D7FA               	bra	u2057
   766   00108C                     l3035:
   767                           
   768                           ;application.c: 34:         ret = keypad_get_value(&key_pad , &num1_digit2);
   769   00108C  0E5C               	movlw	low _key_pad
   770   00108E  6E09               	movwf	keypad_get_value@_keypad_obj^0,c
   771   001090  0E78               	movlw	low _num1_digit2
   772   001092  6E0A               	movwf	keypad_get_value@value^0,c
   773   001094  ECF6  F00B         	call	_keypad_get_value	;wreg free
   774   001098  6E7A               	movwf	_ret^0,c
   775   00109A                     
   776                           ;application.c: 36:         }while(num1_digit2 == 0);
   777   00109A  5078               	movf	_num1_digit2^0,w,c
   778   00109C  B4D8               	btfsc	status,2,c
   779   00109E  EF53  F008         	goto	u1981
   780   0010A2  EF55  F008         	goto	u1980
   781   0010A6                     u1981:
   782   0010A6  EF46  F008         	goto	l3035
   783   0010AA                     u1980:
   784   0010AA                     
   785                           ;application.c: 37:         _delay((unsigned long)((250)*(8000000/4000.0)));
   786   0010AA  0E03               	movlw	3
   787   0010AC  6E33               	movwf	(??_main+1)^0,c
   788   0010AE  0E8A               	movlw	138
   789   0010B0  6E32               	movwf	??_main^0,c
   790   0010B2  0E56               	movlw	86
   791   0010B4                     u2067:
   792   0010B4  2EE8               	decfsz	wreg,f,c
   793   0010B6  D7FE               	bra	u2067
   794   0010B8  2E32               	decfsz	??_main^0,f,c
   795   0010BA  D7FC               	bra	u2067
   796   0010BC  2E33               	decfsz	(??_main+1)^0,f,c
   797   0010BE  D7FA               	bra	u2067
   798   0010C0                     
   799                           ;application.c: 38:         ret = lcd_8bit_send_char_data_pos(&lcd_2,1,2,num1_digit2);
   800   0010C0  0E52               	movlw	low _lcd_2
   801   0010C2  6E17               	movwf	lcd_8bit_send_char_data_pos@lcd^0,c
   802   0010C4  0E01               	movlw	1
   803   0010C6  6E18               	movwf	lcd_8bit_send_char_data_pos@row^0,c
   804   0010C8  0E02               	movlw	2
   805   0010CA  6E19               	movwf	lcd_8bit_send_char_data_pos@column^0,c
   806   0010CC  C078  F01A         	movff	_num1_digit2,lcd_8bit_send_char_data_pos@data
   807   0010D0  EC4A  F010         	call	_lcd_8bit_send_char_data_pos	;wreg free
   808   0010D4  6E7A               	movwf	_ret^0,c
   809   0010D6                     
   810                           ;application.c: 39:         _delay((unsigned long)((250)*(8000000/4000.0)));
   811   0010D6  0E03               	movlw	3
   812   0010D8  6E33               	movwf	(??_main+1)^0,c
   813   0010DA  0E8A               	movlw	138
   814   0010DC  6E32               	movwf	??_main^0,c
   815   0010DE  0E56               	movlw	86
   816   0010E0                     u2077:
   817   0010E0  2EE8               	decfsz	wreg,f,c
   818   0010E2  D7FE               	bra	u2077
   819   0010E4  2E32               	decfsz	??_main^0,f,c
   820   0010E6  D7FC               	bra	u2077
   821   0010E8  2E33               	decfsz	(??_main+1)^0,f,c
   822   0010EA  D7FA               	bra	u2077
   823   0010EC                     l3045:
   824                           
   825                           ;application.c: 42:         ret = keypad_get_value(&key_pad , &operator);
   826   0010EC  0E5C               	movlw	low _key_pad
   827   0010EE  6E09               	movwf	keypad_get_value@_keypad_obj^0,c
   828   0010F0  0E76               	movlw	low _operator
   829   0010F2  6E0A               	movwf	keypad_get_value@value^0,c
   830   0010F4  ECF6  F00B         	call	_keypad_get_value	;wreg free
   831   0010F8  6E7A               	movwf	_ret^0,c
   832   0010FA                     
   833                           ;application.c: 44:         }while(operator == 0);
   834   0010FA  5076               	movf	_operator^0,w,c
   835   0010FC  B4D8               	btfsc	status,2,c
   836   0010FE  EF83  F008         	goto	u1991
   837   001102  EF85  F008         	goto	u1990
   838   001106                     u1991:
   839   001106  EF76  F008         	goto	l3045
   840   00110A                     u1990:
   841   00110A                     
   842                           ;application.c: 45:         _delay((unsigned long)((250)*(8000000/4000.0)));
   843   00110A  0E03               	movlw	3
   844   00110C  6E33               	movwf	(??_main+1)^0,c
   845   00110E  0E8A               	movlw	138
   846   001110  6E32               	movwf	??_main^0,c
   847   001112  0E56               	movlw	86
   848   001114                     u2087:
   849   001114  2EE8               	decfsz	wreg,f,c
   850   001116  D7FE               	bra	u2087
   851   001118  2E32               	decfsz	??_main^0,f,c
   852   00111A  D7FC               	bra	u2087
   853   00111C  2E33               	decfsz	(??_main+1)^0,f,c
   854   00111E  D7FA               	bra	u2087
   855   001120                     
   856                           ;application.c: 46:         ret = lcd_8bit_send_char_data_pos(&lcd_2,1,4,operator);
   857   001120  0E52               	movlw	low _lcd_2
   858   001122  6E17               	movwf	lcd_8bit_send_char_data_pos@lcd^0,c
   859   001124  0E01               	movlw	1
   860   001126  6E18               	movwf	lcd_8bit_send_char_data_pos@row^0,c
   861   001128  0E04               	movlw	4
   862   00112A  6E19               	movwf	lcd_8bit_send_char_data_pos@column^0,c
   863   00112C  C076  F01A         	movff	_operator,lcd_8bit_send_char_data_pos@data
   864   001130  EC4A  F010         	call	_lcd_8bit_send_char_data_pos	;wreg free
   865   001134  6E7A               	movwf	_ret^0,c
   866   001136                     
   867                           ;application.c: 47:         _delay((unsigned long)((250)*(8000000/4000.0)));
   868   001136  0E03               	movlw	3
   869   001138  6E33               	movwf	(??_main+1)^0,c
   870   00113A  0E8A               	movlw	138
   871   00113C  6E32               	movwf	??_main^0,c
   872   00113E  0E56               	movlw	86
   873   001140                     u2097:
   874   001140  2EE8               	decfsz	wreg,f,c
   875   001142  D7FE               	bra	u2097
   876   001144  2E32               	decfsz	??_main^0,f,c
   877   001146  D7FC               	bra	u2097
   878   001148  2E33               	decfsz	(??_main+1)^0,f,c
   879   00114A  D7FA               	bra	u2097
   880   00114C                     l3055:
   881                           
   882                           ;application.c: 49:         ret = keypad_get_value(&key_pad , &num2_digit1);
   883   00114C  0E5C               	movlw	low _key_pad
   884   00114E  6E09               	movwf	keypad_get_value@_keypad_obj^0,c
   885   001150  0E79               	movlw	low _num2_digit1
   886   001152  6E0A               	movwf	keypad_get_value@value^0,c
   887   001154  ECF6  F00B         	call	_keypad_get_value	;wreg free
   888   001158  6E7A               	movwf	_ret^0,c
   889   00115A                     
   890                           ;application.c: 50:         }while(num2_digit1 == 0);
   891   00115A  5079               	movf	_num2_digit1^0,w,c
   892   00115C  B4D8               	btfsc	status,2,c
   893   00115E  EFB3  F008         	goto	u2001
   894   001162  EFB5  F008         	goto	u2000
   895   001166                     u2001:
   896   001166  EFA6  F008         	goto	l3055
   897   00116A                     u2000:
   898   00116A                     
   899                           ;application.c: 51:         _delay((unsigned long)((250)*(8000000/4000.0)));
   900   00116A  0E03               	movlw	3
   901   00116C  6E33               	movwf	(??_main+1)^0,c
   902   00116E  0E8A               	movlw	138
   903   001170  6E32               	movwf	??_main^0,c
   904   001172  0E56               	movlw	86
   905   001174                     u2107:
   906   001174  2EE8               	decfsz	wreg,f,c
   907   001176  D7FE               	bra	u2107
   908   001178  2E32               	decfsz	??_main^0,f,c
   909   00117A  D7FC               	bra	u2107
   910   00117C  2E33               	decfsz	(??_main+1)^0,f,c
   911   00117E  D7FA               	bra	u2107
   912   001180                     
   913                           ;application.c: 52:         ret = lcd_8bit_send_char_data_pos(&lcd_2,1,6,num2_digit1);
   914   001180  0E52               	movlw	low _lcd_2
   915   001182  6E17               	movwf	lcd_8bit_send_char_data_pos@lcd^0,c
   916   001184  0E01               	movlw	1
   917   001186  6E18               	movwf	lcd_8bit_send_char_data_pos@row^0,c
   918   001188  0E06               	movlw	6
   919   00118A  6E19               	movwf	lcd_8bit_send_char_data_pos@column^0,c
   920   00118C  C079  F01A         	movff	_num2_digit1,lcd_8bit_send_char_data_pos@data
   921   001190  EC4A  F010         	call	_lcd_8bit_send_char_data_pos	;wreg free
   922   001194  6E7A               	movwf	_ret^0,c
   923   001196                     
   924                           ;application.c: 53:         _delay((unsigned long)((250)*(8000000/4000.0)));
   925   001196  0E03               	movlw	3
   926   001198  6E33               	movwf	(??_main+1)^0,c
   927   00119A  0E8A               	movlw	138
   928   00119C  6E32               	movwf	??_main^0,c
   929   00119E  0E56               	movlw	86
   930   0011A0                     u2117:
   931   0011A0  2EE8               	decfsz	wreg,f,c
   932   0011A2  D7FE               	bra	u2117
   933   0011A4  2E32               	decfsz	??_main^0,f,c
   934   0011A6  D7FC               	bra	u2117
   935   0011A8  2E33               	decfsz	(??_main+1)^0,f,c
   936   0011AA  D7FA               	bra	u2117
   937   0011AC                     l3065:
   938                           
   939                           ;application.c: 55:         ret = keypad_get_value(&key_pad , &num2_digit2);
   940   0011AC  0E5C               	movlw	low _key_pad
   941   0011AE  6E09               	movwf	keypad_get_value@_keypad_obj^0,c
   942   0011B0  0E77               	movlw	low _num2_digit2
   943   0011B2  6E0A               	movwf	keypad_get_value@value^0,c
   944   0011B4  ECF6  F00B         	call	_keypad_get_value	;wreg free
   945   0011B8  6E7A               	movwf	_ret^0,c
   946   0011BA                     
   947                           ;application.c: 56:         }while(num2_digit2 == 0);
   948   0011BA  5077               	movf	_num2_digit2^0,w,c
   949   0011BC  B4D8               	btfsc	status,2,c
   950   0011BE  EFE3  F008         	goto	u2011
   951   0011C2  EFE5  F008         	goto	u2010
   952   0011C6                     u2011:
   953   0011C6  EFD6  F008         	goto	l3065
   954   0011CA                     u2010:
   955   0011CA                     
   956                           ;application.c: 57:         _delay((unsigned long)((250)*(8000000/4000.0)));
   957   0011CA  0E03               	movlw	3
   958   0011CC  6E33               	movwf	(??_main+1)^0,c
   959   0011CE  0E8A               	movlw	138
   960   0011D0  6E32               	movwf	??_main^0,c
   961   0011D2  0E56               	movlw	86
   962   0011D4                     u2127:
   963   0011D4  2EE8               	decfsz	wreg,f,c
   964   0011D6  D7FE               	bra	u2127
   965   0011D8  2E32               	decfsz	??_main^0,f,c
   966   0011DA  D7FC               	bra	u2127
   967   0011DC  2E33               	decfsz	(??_main+1)^0,f,c
   968   0011DE  D7FA               	bra	u2127
   969   0011E0                     
   970                           ;application.c: 58:         ret = lcd_8bit_send_char_data_pos(&lcd_2,1,7,num2_digit2);
   971   0011E0  0E52               	movlw	low _lcd_2
   972   0011E2  6E17               	movwf	lcd_8bit_send_char_data_pos@lcd^0,c
   973   0011E4  0E01               	movlw	1
   974   0011E6  6E18               	movwf	lcd_8bit_send_char_data_pos@row^0,c
   975   0011E8  0E07               	movlw	7
   976   0011EA  6E19               	movwf	lcd_8bit_send_char_data_pos@column^0,c
   977   0011EC  C077  F01A         	movff	_num2_digit2,lcd_8bit_send_char_data_pos@data
   978   0011F0  EC4A  F010         	call	_lcd_8bit_send_char_data_pos	;wreg free
   979   0011F4  6E7A               	movwf	_ret^0,c
   980   0011F6                     
   981                           ;application.c: 59:         _delay((unsigned long)((250)*(8000000/4000.0)));
   982   0011F6  0E03               	movlw	3
   983   0011F8  6E33               	movwf	(??_main+1)^0,c
   984   0011FA  0E8A               	movlw	138
   985   0011FC  6E32               	movwf	??_main^0,c
   986   0011FE  0E56               	movlw	86
   987   001200                     u2137:
   988   001200  2EE8               	decfsz	wreg,f,c
   989   001202  D7FE               	bra	u2137
   990   001204  2E32               	decfsz	??_main^0,f,c
   991   001206  D7FC               	bra	u2137
   992   001208  2E33               	decfsz	(??_main+1)^0,f,c
   993   00120A  D7FA               	bra	u2137
   994   00120C                     l3075:
   995                           
   996                           ;application.c: 61:         ret = keypad_get_value(&key_pad , &assignment_operator);
   997   00120C  0E5C               	movlw	low _key_pad
   998   00120E  6E09               	movwf	keypad_get_value@_keypad_obj^0,c
   999   001210  0E75               	movlw	low _assignment_operator
  1000   001212  6E0A               	movwf	keypad_get_value@value^0,c
  1001   001214  ECF6  F00B         	call	_keypad_get_value	;wreg free
  1002   001218  6E7A               	movwf	_ret^0,c
  1003   00121A                     
  1004                           ;application.c: 62:         }while(assignment_operator == 0);
  1005   00121A  5075               	movf	_assignment_operator^0,w,c
  1006   00121C  B4D8               	btfsc	status,2,c
  1007   00121E  EF13  F009         	goto	u2021
  1008   001222  EF15  F009         	goto	u2020
  1009   001226                     u2021:
  1010   001226  EF06  F009         	goto	l3075
  1011   00122A                     u2020:
  1012   00122A                     
  1013                           ;application.c: 63:         _delay((unsigned long)((250)*(8000000/4000.0)));
  1014   00122A  0E03               	movlw	3
  1015   00122C  6E33               	movwf	(??_main+1)^0,c
  1016   00122E  0E8A               	movlw	138
  1017   001230  6E32               	movwf	??_main^0,c
  1018   001232  0E56               	movlw	86
  1019   001234                     u2147:
  1020   001234  2EE8               	decfsz	wreg,f,c
  1021   001236  D7FE               	bra	u2147
  1022   001238  2E32               	decfsz	??_main^0,f,c
  1023   00123A  D7FC               	bra	u2147
  1024   00123C  2E33               	decfsz	(??_main+1)^0,f,c
  1025   00123E  D7FA               	bra	u2147
  1026   001240                     
  1027                           ;application.c: 64:         ret = lcd_8bit_send_char_data_pos(&lcd_2,1,9,assignment_oper
      +                          ator);
  1028   001240  0E52               	movlw	low _lcd_2
  1029   001242  6E17               	movwf	lcd_8bit_send_char_data_pos@lcd^0,c
  1030   001244  0E01               	movlw	1
  1031   001246  6E18               	movwf	lcd_8bit_send_char_data_pos@row^0,c
  1032   001248  0E09               	movlw	9
  1033   00124A  6E19               	movwf	lcd_8bit_send_char_data_pos@column^0,c
  1034   00124C  C075  F01A         	movff	_assignment_operator,lcd_8bit_send_char_data_pos@data
  1035   001250  EC4A  F010         	call	_lcd_8bit_send_char_data_pos	;wreg free
  1036   001254  6E7A               	movwf	_ret^0,c
  1037                           
  1038                           ;application.c: 65:         switch(operator){
  1039   001256  EF3D  F009         	goto	l3093
  1040   00125A                     l3083:
  1041                           
  1042                           ;application.c: 67:                 Add_operation();
  1043   00125A  EC98  F00F         	call	_Add_operation	;wreg free
  1044                           
  1045                           ;application.c: 68:                 break;
  1046   00125E  EF5A  F009         	goto	l3095
  1047   001262                     l3085:
  1048                           
  1049                           ;application.c: 70:                 Sub_operation();
  1050   001262  EC4A  F00F         	call	_Sub_operation	;wreg free
  1051                           
  1052                           ;application.c: 71:                 break;
  1053   001266  EF5A  F009         	goto	l3095
  1054   00126A                     l3087:
  1055                           
  1056                           ;application.c: 73:                 Mult_operation();
  1057   00126A  EC71  F00F         	call	_Mult_operation	;wreg free
  1058                           
  1059                           ;application.c: 74:                 break;
  1060   00126E  EF5A  F009         	goto	l3095
  1061   001272                     l3089:
  1062                           
  1063                           ;application.c: 76:                 Div_operation();
  1064   001272  EC20  F00F         	call	_Div_operation	;wreg free
  1065                           
  1066                           ;application.c: 77:                 break;
  1067   001276  EF5A  F009         	goto	l3095
  1068   00127A                     l3093:
  1069   00127A  5076               	movf	_operator^0,w,c
  1070   00127C  6E32               	movwf	??_main^0,c
  1071   00127E  6A33               	clrf	(??_main+1)^0,c
  1072                           
  1073                           ; Switch on 2 bytes has been partitioned into a top level switch of size 1, and 1 sub-sw
      +                          itches
  1074                           ; Switch size 1, requested type "simple"
  1075                           ; Number of cases is 1, Range of values is 0 to 0
  1076                           ; switch strategies available:
  1077                           ; Name         Instructions Cycles
  1078                           ; simple_byte            4     3 (average)
  1079                           ;	Chosen strategy is simple_byte
  1080   001280  5033               	movf	(??_main+1)^0,w,c
  1081   001282  0A00               	xorlw	0	; case 0
  1082   001284  B4D8               	btfsc	status,2,c
  1083   001286  EF47  F009         	goto	l3137
  1084   00128A  EF5A  F009         	goto	l3095
  1085   00128E                     l3137:
  1086                           
  1087                           ; Switch size 1, requested type "simple"
  1088                           ; Number of cases is 4, Range of values is 42 to 47
  1089                           ; switch strategies available:
  1090                           ; Name         Instructions Cycles
  1091                           ; simple_byte           13     7 (average)
  1092                           ;	Chosen strategy is simple_byte
  1093   00128E  5032               	movf	??_main^0,w,c
  1094   001290  0A2A               	xorlw	42	; case 42
  1095   001292  B4D8               	btfsc	status,2,c
  1096   001294  EF35  F009         	goto	l3087
  1097   001298  0A01               	xorlw	1	; case 43
  1098   00129A  B4D8               	btfsc	status,2,c
  1099   00129C  EF2D  F009         	goto	l3083
  1100   0012A0  0A06               	xorlw	6	; case 45
  1101   0012A2  B4D8               	btfsc	status,2,c
  1102   0012A4  EF31  F009         	goto	l3085
  1103   0012A8  0A02               	xorlw	2	; case 47
  1104   0012AA  B4D8               	btfsc	status,2,c
  1105   0012AC  EF39  F009         	goto	l3089
  1106   0012B0  EF5A  F009         	goto	l3095
  1107   0012B4                     l3095:
  1108                           
  1109                           ;application.c: 83:         ret = keypad_get_value(&key_pad , &off);
  1110   0012B4  0E5C               	movlw	low _key_pad
  1111   0012B6  6E09               	movwf	keypad_get_value@_keypad_obj^0,c
  1112   0012B8  0E74               	movlw	low _off
  1113   0012BA  6E0A               	movwf	keypad_get_value@value^0,c
  1114   0012BC  ECF6  F00B         	call	_keypad_get_value	;wreg free
  1115   0012C0  6E7A               	movwf	_ret^0,c
  1116   0012C2                     
  1117                           ;application.c: 84:         }while(off == 0);
  1118   0012C2  5074               	movf	_off^0,w,c
  1119   0012C4  B4D8               	btfsc	status,2,c
  1120   0012C6  EF67  F009         	goto	u2031
  1121   0012CA  EF69  F009         	goto	u2030
  1122   0012CE                     u2031:
  1123   0012CE  EF5A  F009         	goto	l3095
  1124   0012D2                     u2030:
  1125   0012D2                     
  1126                           ;application.c: 85:         _delay((unsigned long)((250)*(8000000/4000.0)));
  1127   0012D2  0E03               	movlw	3
  1128   0012D4  6E33               	movwf	(??_main+1)^0,c
  1129   0012D6  0E8A               	movlw	138
  1130   0012D8  6E32               	movwf	??_main^0,c
  1131   0012DA  0E56               	movlw	86
  1132   0012DC                     u2157:
  1133   0012DC  2EE8               	decfsz	wreg,f,c
  1134   0012DE  D7FE               	bra	u2157
  1135   0012E0  2E32               	decfsz	??_main^0,f,c
  1136   0012E2  D7FC               	bra	u2157
  1137   0012E4  2E33               	decfsz	(??_main+1)^0,f,c
  1138   0012E6  D7FA               	bra	u2157
  1139   0012E8                     
  1140                           ;application.c: 86:         lcd_8bit_send_command(&lcd_2,0x01);
  1141   0012E8  0E52               	movlw	low _lcd_2
  1142   0012EA  6E0B               	movwf	lcd_8bit_send_command@lcd^0,c
  1143   0012EC  0E01               	movlw	1
  1144   0012EE  6E0C               	movwf	lcd_8bit_send_command@command^0,c
  1145   0012F0  EC1D  F00E         	call	_lcd_8bit_send_command	;wreg free
  1146   0012F4                     
  1147                           ;application.c: 87:             num1_digit1 =0;
  1148   0012F4  0E00               	movlw	0
  1149   0012F6  6E7B               	movwf	_num1_digit1^0,c
  1150   0012F8                     
  1151                           ;application.c: 88:             num1_digit2 =0;
  1152   0012F8  0E00               	movlw	0
  1153   0012FA  6E78               	movwf	_num1_digit2^0,c
  1154   0012FC                     
  1155                           ;application.c: 89:             num2_digit1 =0;
  1156   0012FC  0E00               	movlw	0
  1157   0012FE  6E79               	movwf	_num2_digit1^0,c
  1158   001300                     
  1159                           ;application.c: 90:             num2_digit2 =0;
  1160   001300  0E00               	movlw	0
  1161   001302  6E77               	movwf	_num2_digit2^0,c
  1162   001304                     
  1163                           ;application.c: 91:             operator =0;
  1164   001304  0E00               	movlw	0
  1165   001306  6E76               	movwf	_operator^0,c
  1166   001308                     
  1167                           ;application.c: 92:             assignment_operator =0;
  1168   001308  0E00               	movlw	0
  1169   00130A  6E75               	movwf	_assignment_operator^0,c
  1170   00130C                     
  1171                           ;application.c: 93:             off =0;
  1172   00130C  0E00               	movlw	0
  1173   00130E  6E74               	movwf	_off^0,c
  1174   001310  EF0D  F008         	goto	l278
  1175   001314  EF00  F000         	goto	start
  1176   001318                     __end_of_main:
  1177                           	callstack 0
  1178                           
  1179 ;; *************** function _lcd_8bit_send_char_data_pos *****************
  1180 ;; Defined at:
  1181 ;;		line 195 in file "ECU_layer/LCD/ecu_lcd.c"
  1182 ;; Parameters:    Size  Location     Type
  1183 ;;  lcd             1   22[COMRAM] PTR const struct .
  1184 ;;		 -> lcd_2(10), 
  1185 ;;  row             1   23[COMRAM] unsigned char 
  1186 ;;  column          1   24[COMRAM] unsigned char 
  1187 ;;  data            1   25[COMRAM] unsigned char 
  1188 ;; Auto vars:     Size  Location     Type
  1189 ;;  ret             1   26[COMRAM] unsigned char 
  1190 ;; Return value:  Size  Location     Type
  1191 ;;                  1    wreg      unsigned char 
  1192 ;; Registers used:
  1193 ;;		wreg, fsr2l, fsr2h, status,2, status,0, prodl, prodh, cstack
  1194 ;; Tracked objects:
  1195 ;;		On entry : 0/0
  1196 ;;		On exit  : 0/0
  1197 ;;		Unchanged: 0/0
  1198 ;; Data sizes:     COMRAM   BANK0   BANK1   BANK2   BANK3   BANK4   BANK5   BANK6   BANK7   BANK8   BANK9  BANK10  BANK1
      +1  BANK12  BANK13  BANK14  BANK15
  1199 ;;      Params:         4       0       0       0       0       0       0       0       0       0       0       0       
      +0       0       0       0       0
  1200 ;;      Locals:         1       0       0       0       0       0       0       0       0       0       0       0       
      +0       0       0       0       0
  1201 ;;      Temps:          0       0       0       0       0       0       0       0       0       0       0       0       
      +0       0       0       0       0
  1202 ;;      Totals:         5       0       0       0       0       0       0       0       0       0       0       0       
      +0       0       0       0       0
  1203 ;;Total ram usage:        5 bytes
  1204 ;; Hardware stack levels used: 1
  1205 ;; Hardware stack levels required when called: 4
  1206 ;; This function calls:
  1207 ;;		_lcd_8bit_send_char_data
  1208 ;;		_lcd_8bits_set_cursor
  1209 ;; This function is called by:
  1210 ;;		_main
  1211 ;;		_lcd_8bit_send_custome_char
  1212 ;; This function uses a non-reentrant model
  1213 ;;
  1214                           
  1215                           	psect	text1
  1216   002094                     __ptext1:
  1217                           	callstack 0
  1218   002094                     _lcd_8bit_send_char_data_pos:
  1219                           	callstack 26
  1220   002094                     
  1221                           ;ECU_layer/LCD/ecu_lcd.c: 197:        if(((void*)0)==lcd){
  1222   002094  5017               	movf	lcd_8bit_send_char_data_pos@lcd^0,w,c
  1223   002096  A4D8               	btfss	status,2,c
  1224   002098  EF50  F010         	goto	u1851
  1225   00209C  EF52  F010         	goto	u1850
  1226   0020A0                     u1851:
  1227   0020A0  EF56  F010         	goto	l2821
  1228   0020A4                     u1850:
  1229   0020A4                     
  1230                           ;ECU_layer/LCD/ecu_lcd.c: 198:            ret = (std_returntype)0x00 ;
  1231   0020A4  0E00               	movlw	0
  1232   0020A6  6E1B               	movwf	lcd_8bit_send_char_data_pos@ret^0,c
  1233                           
  1234                           ;ECU_layer/LCD/ecu_lcd.c: 199:        }
  1235   0020A8  EF66  F010         	goto	l2823
  1236   0020AC                     l2821:
  1237                           
  1238                           ;ECU_layer/LCD/ecu_lcd.c: 201:         {;ECU_layer/LCD/ecu_lcd.c: 202:            ret = 
      +                          lcd_8bits_set_cursor(lcd , row , column);
  1239   0020AC  C017  F011         	movff	lcd_8bit_send_char_data_pos@lcd,lcd_8bits_set_cursor@lcd
  1240   0020B0  C018  F012         	movff	lcd_8bit_send_char_data_pos@row,lcd_8bits_set_cursor@row
  1241   0020B4  C019  F013         	movff	lcd_8bit_send_char_data_pos@column,lcd_8bits_set_cursor@column
  1242   0020B8  EC77  F00D         	call	_lcd_8bits_set_cursor	;wreg free
  1243   0020BC  6E1B               	movwf	lcd_8bit_send_char_data_pos@ret^0,c
  1244                           
  1245                           ;ECU_layer/LCD/ecu_lcd.c: 203:            ret = lcd_8bit_send_char_data(lcd , data);
  1246   0020BE  C017  F00B         	movff	lcd_8bit_send_char_data_pos@lcd,lcd_8bit_send_char_data@lcd
  1247   0020C2  C01A  F00C         	movff	lcd_8bit_send_char_data_pos@data,lcd_8bit_send_char_data@data
  1248   0020C6  EC58  F00E         	call	_lcd_8bit_send_char_data	;wreg free
  1249   0020CA  6E1B               	movwf	lcd_8bit_send_char_data_pos@ret^0,c
  1250   0020CC                     l2823:
  1251                           
  1252                           ;ECU_layer/LCD/ecu_lcd.c: 205:      return ret;
  1253   0020CC  501B               	movf	lcd_8bit_send_char_data_pos@ret^0,w,c
  1254   0020CE  0012               	return		;funcret
  1255   0020D0                     __end_of_lcd_8bit_send_char_data_pos:
  1256                           	callstack 0
  1257                           
  1258 ;; *************** function _keypad_get_value *****************
  1259 ;; Defined at:
  1260 ;;		line 37 in file "ECU_layer/keypad/ecu_key_pad.c"
  1261 ;; Parameters:    Size  Location     Type
  1262 ;;  _keypad_obj     1    8[COMRAM] PTR const struct .
  1263 ;;		 -> key_pad(8), 
  1264 ;;  value           1    9[COMRAM] PTR unsigned char 
  1265 ;;		 -> off(1), assignment_operator(1), num2_digit2(1), num2_digit1(1), 
  1266 ;;		 -> operator(1), num1_digit2(1), num1_digit1(1), 
  1267 ;; Auto vars:     Size  Location     Type
  1268 ;;  l_columns_co    1   14[COMRAM] unsigned char 
  1269 ;;  l_rows_count    1   13[COMRAM] unsigned char 
  1270 ;;  l_counter       1   12[COMRAM] unsigned char 
  1271 ;;  column_logic    1   11[COMRAM] unsigned char 
  1272 ;;  ret             1    0        unsigned char 
  1273 ;; Return value:  Size  Location     Type
  1274 ;;                  1    wreg      unsigned char 
  1275 ;; Registers used:
  1276 ;;		wreg, fsr1l, fsr1h, fsr2l, fsr2h, status,2, status,0, tblptrl, tblptrh, tblptru, prodl, prodh, cstack
  1277 ;; Tracked objects:
  1278 ;;		On entry : 0/0
  1279 ;;		On exit  : 0/0
  1280 ;;		Unchanged: 0/0
  1281 ;; Data sizes:     COMRAM   BANK0   BANK1   BANK2   BANK3   BANK4   BANK5   BANK6   BANK7   BANK8   BANK9  BANK10  BANK1
      +1  BANK12  BANK13  BANK14  BANK15
  1282 ;;      Params:         2       0       0       0       0       0       0       0       0       0       0       0       
      +0       0       0       0       0
  1283 ;;      Locals:         4       0       0       0       0       0       0       0       0       0       0       0       
      +0       0       0       0       0
  1284 ;;      Temps:          1       0       0       0       0       0       0       0       0       0       0       0       
      +0       0       0       0       0
  1285 ;;      Totals:         7       0       0       0       0       0       0       0       0       0       0       0       
      +0       0       0       0       0
  1286 ;;Total ram usage:        7 bytes
  1287 ;; Hardware stack levels used: 1
  1288 ;; Hardware stack levels required when called: 1
  1289 ;; This function calls:
  1290 ;;		_gpio_pin_read_logic
  1291 ;;		_gpio_pin_write_logic
  1292 ;; This function is called by:
  1293 ;;		_main
  1294 ;; This function uses a non-reentrant model
  1295 ;;
  1296                           
  1297                           	psect	text2
  1298   0017EC                     __ptext2:
  1299                           	callstack 0
  1300   0017EC                     _keypad_get_value:
  1301                           	callstack 29
  1302   0017EC                     
  1303                           ;ECU_layer/keypad/ecu_key_pad.c: 39:      uint8 l_rows_counter = 0, l_columns_counter = 
      +                          0 , l_counter = 0;
  1304   0017EC  0E00               	movlw	0
  1305   0017EE  6E0E               	movwf	keypad_get_value@l_rows_counter^0,c
  1306   0017F0  0E00               	movlw	0
  1307   0017F2  6E0F               	movwf	keypad_get_value@l_columns_counter^0,c
  1308   0017F4  0E00               	movlw	0
  1309   0017F6  6E0D               	movwf	keypad_get_value@l_counter^0,c
  1310                           
  1311                           ;ECU_layer/keypad/ecu_key_pad.c: 40:      uint8 column_logic = 0;
  1312   0017F8  0E00               	movlw	0
  1313   0017FA  6E0C               	movwf	keypad_get_value@column_logic^0,c
  1314                           
  1315                           ;ECU_layer/keypad/ecu_key_pad.c: 41:        if((((void*)0)==_keypad_obj) || (((void*)0)=
      +                          = value) ){
  1316   0017FC  5009               	movf	keypad_get_value@_keypad_obj^0,w,c
  1317   0017FE  B4D8               	btfsc	status,2,c
  1318   001800  EF04  F00C         	goto	u1751
  1319   001804  EF06  F00C         	goto	u1750
  1320   001808                     u1751:
  1321   001808  EF0E  F00C         	goto	l2733
  1322   00180C                     u1750:
  1323   00180C  500A               	movf	keypad_get_value@value^0,w,c
  1324   00180E  A4D8               	btfss	status,2,c
  1325   001810  EF0C  F00C         	goto	u1761
  1326   001814  EF0E  F00C         	goto	u1760
  1327   001818                     u1761:
  1328   001818  EF10  F00C         	goto	l2735
  1329   00181C                     u1760:
  1330   00181C                     l2733:
  1331                           
  1332                           ;ECU_layer/keypad/ecu_key_pad.c: 43:        }
  1333   00181C  EF67  F00C         	goto	l35
  1334   001820                     l2735:
  1335                           
  1336                           ;ECU_layer/keypad/ecu_key_pad.c: 45:         {;ECU_layer/keypad/ecu_key_pad.c: 46:      
      +                                for(l_rows_counter = 0 ;l_rows_counter<4;l_rows_counter++){
  1337   001820  0E00               	movlw	0
  1338   001822  6E0E               	movwf	keypad_get_value@l_rows_counter^0,c
  1339   001824                     l2741:
  1340                           
  1341                           ;ECU_layer/keypad/ecu_key_pad.c: 47:                for(l_counter = 0 ;l_counter<4;l_cou
      +                          nter++){
  1342   001824  0E00               	movlw	0
  1343   001826  6E0D               	movwf	keypad_get_value@l_counter^0,c
  1344   001828                     l2747:
  1345                           
  1346                           ;ECU_layer/keypad/ecu_key_pad.c: 48:                    gpio_pin_write_logic(&(_keypad_o
      +                          bj->keypad_row_pins[l_counter]), LOW);
  1347   001828  5009               	movf	keypad_get_value@_keypad_obj^0,w,c
  1348   00182A  240D               	addwf	keypad_get_value@l_counter^0,w,c
  1349   00182C  6E01               	movwf	gpio_pin_write_logic@_pin_config^0,c
  1350   00182E  0E00               	movlw	0
  1351   001830  6E02               	movwf	gpio_pin_write_logic@logic^0,c
  1352   001832  ECFB  F00A         	call	_gpio_pin_write_logic	;wreg free
  1353   001836                     
  1354                           ;ECU_layer/keypad/ecu_key_pad.c: 49:                }
  1355   001836  2A0D               	incf	keypad_get_value@l_counter^0,f,c
  1356   001838  0E03               	movlw	3
  1357   00183A  640D               	cpfsgt	keypad_get_value@l_counter^0,c
  1358   00183C  EF22  F00C         	goto	u1771
  1359   001840  EF24  F00C         	goto	u1770
  1360   001844                     u1771:
  1361   001844  EF14  F00C         	goto	l2747
  1362   001848                     u1770:
  1363   001848                     
  1364                           ;ECU_layer/keypad/ecu_key_pad.c: 50:                gpio_pin_write_logic(&(_keypad_obj->
      +                          keypad_row_pins[l_rows_counter]), HIGH);
  1365   001848  5009               	movf	keypad_get_value@_keypad_obj^0,w,c
  1366   00184A  240E               	addwf	keypad_get_value@l_rows_counter^0,w,c
  1367   00184C  6E01               	movwf	gpio_pin_write_logic@_pin_config^0,c
  1368   00184E  0E01               	movlw	1
  1369   001850  6E02               	movwf	gpio_pin_write_logic@logic^0,c
  1370   001852  ECFB  F00A         	call	_gpio_pin_write_logic	;wreg free
  1371   001856                     
  1372                           ;ECU_layer/keypad/ecu_key_pad.c: 51:                _delay((unsigned long)((10)*(8000000
      +                          /4000.0)));
  1373   001856  0E1A               	movlw	26
  1374   001858  6E0B               	movwf	??_keypad_get_value^0,c
  1375   00185A  0EF8               	movlw	248
  1376   00185C                     u2167:
  1377   00185C  2EE8               	decfsz	wreg,f,c
  1378   00185E  D7FE               	bra	u2167
  1379   001860  2E0B               	decfsz	??_keypad_get_value^0,f,c
  1380   001862  D7FC               	bra	u2167
  1381   001864  D000               	nop2	
  1382   001866                     
  1383                           ;ECU_layer/keypad/ecu_key_pad.c: 52:                for(l_columns_counter = 0 ;l_columns
      +                          _counter<4;l_columns_counter++){
  1384   001866  0E00               	movlw	0
  1385   001868  6E0F               	movwf	keypad_get_value@l_columns_counter^0,c
  1386   00186A                     l2763:
  1387   00186A  5009               	movf	keypad_get_value@_keypad_obj^0,w,c
  1388   00186C  240F               	addwf	keypad_get_value@l_columns_counter^0,w,c
  1389   00186E  0F04               	addlw	4
  1390   001870  6E01               	movwf	gpio_pin_read_logic@_pin_config^0,c
  1391   001872  0E0C               	movlw	low keypad_get_value@column_logic
  1392   001874  6E02               	movwf	gpio_pin_read_logic@logic^0,c
  1393   001876  ECCB  F00D         	call	_gpio_pin_read_logic	;wreg free
  1394   00187A                     
  1395                           ;ECU_layer/keypad/ecu_key_pad.c: 54:                    if(HIGH == column_logic){
  1396   00187A  040C               	decf	keypad_get_value@column_logic^0,w,c
  1397   00187C  A4D8               	btfss	status,2,c
  1398   00187E  EF43  F00C         	goto	u1781
  1399   001882  EF45  F00C         	goto	u1780
  1400   001886                     u1781:
  1401   001886  EF55  F00C         	goto	l2769
  1402   00188A                     u1780:
  1403   00188A                     
  1404                           ;ECU_layer/keypad/ecu_key_pad.c: 55:                        *value = btn_values[l_rows_c
      +                          ounter][l_columns_counter];
  1405   00188A  500E               	movf	keypad_get_value@l_rows_counter^0,w,c
  1406   00188C  0D04               	mullw	4
  1407   00188E  50F3               	movf	243,w,c
  1408   001890  0F01               	addlw	low _btn_values
  1409   001892  240F               	addwf	keypad_get_value@l_columns_counter^0,w,c
  1410   001894  6E0B               	movwf	??_keypad_get_value^0,c
  1411   001896  C00B  FFF6         	movff	??_keypad_get_value,tblptrl
  1412   00189A                     	if	1	;There is more than 1 active tblptr byte
  1413   00189A  0E10               	movlw	high __smallconst
  1414   00189C  6EF7               	movwf	tblptrh,c
  1415   00189E                     	endif
  1416   00189E                     	if	0	;tblptru may be non-zero
  1417   00189E                     	endif
  1418   00189E                     	if	0	;tblptru may be non-zero
  1419   00189E                     	endif
  1420   00189E  500A               	movf	keypad_get_value@value^0,w,c
  1421   0018A0  6ED9               	movwf	fsr2l,c
  1422   0018A2  6ADA               	clrf	fsr2h,c
  1423   0018A4  0008               	tblrd		*
  1424   0018A6  CFF5 FFDF          	movff	tablat,indf2
  1425   0018AA                     l2769:
  1426                           
  1427                           ;ECU_layer/keypad/ecu_key_pad.c: 57:                }
  1428   0018AA  2A0F               	incf	keypad_get_value@l_columns_counter^0,f,c
  1429   0018AC  0E03               	movlw	3
  1430   0018AE  640F               	cpfsgt	keypad_get_value@l_columns_counter^0,c
  1431   0018B0  EF5C  F00C         	goto	u1791
  1432   0018B4  EF5E  F00C         	goto	u1790
  1433   0018B8                     u1791:
  1434   0018B8  EF35  F00C         	goto	l2763
  1435   0018BC                     u1790:
  1436   0018BC                     
  1437                           ;ECU_layer/keypad/ecu_key_pad.c: 58:            }
  1438   0018BC  2A0E               	incf	keypad_get_value@l_rows_counter^0,f,c
  1439   0018BE  0E03               	movlw	3
  1440   0018C0  640E               	cpfsgt	keypad_get_value@l_rows_counter^0,c
  1441   0018C2  EF65  F00C         	goto	u1801
  1442   0018C6  EF67  F00C         	goto	u1800
  1443   0018CA                     u1801:
  1444   0018CA  EF12  F00C         	goto	l2741
  1445   0018CE                     u1800:
  1446   0018CE                     l35:
  1447   0018CE  0012               	return		;funcret
  1448   0018D0                     __end_of_keypad_get_value:
  1449                           	callstack 0
  1450                           
  1451 ;; *************** function _gpio_pin_read_logic *****************
  1452 ;; Defined at:
  1453 ;;		line 92 in file "Mcal_layer/GPIO/hal_gpio.c"
  1454 ;; Parameters:    Size  Location     Type
  1455 ;;  _pin_config     1    0[COMRAM] PTR const struct .
  1456 ;;		 -> key_pad$keypad_column_pins(4), key_pad(8), 
  1457 ;;  logic           1    1[COMRAM] PTR enum E2978
  1458 ;;		 -> keypad_get_value@column_logic(1), 
  1459 ;; Auto vars:     Size  Location     Type
  1460 ;;  ret             1    6[COMRAM] unsigned char 
  1461 ;; Return value:  Size  Location     Type
  1462 ;;                  1    wreg      unsigned char 
  1463 ;; Registers used:
  1464 ;;		wreg, fsr1l, fsr1h, fsr2l, fsr2h, status,2, status,0, prodl, prodh
  1465 ;; Tracked objects:
  1466 ;;		On entry : 0/0
  1467 ;;		On exit  : 0/0
  1468 ;;		Unchanged: 0/0
  1469 ;; Data sizes:     COMRAM   BANK0   BANK1   BANK2   BANK3   BANK4   BANK5   BANK6   BANK7   BANK8   BANK9  BANK10  BANK1
      +1  BANK12  BANK13  BANK14  BANK15
  1470 ;;      Params:         2       0       0       0       0       0       0       0       0       0       0       0       
      +0       0       0       0       0
  1471 ;;      Locals:         1       0       0       0       0       0       0       0       0       0       0       0       
      +0       0       0       0       0
  1472 ;;      Temps:          4       0       0       0       0       0       0       0       0       0       0       0       
      +0       0       0       0       0
  1473 ;;      Totals:         7       0       0       0       0       0       0       0       0       0       0       0       
      +0       0       0       0       0
  1474 ;;Total ram usage:        7 bytes
  1475 ;; Hardware stack levels used: 1
  1476 ;; This function calls:
  1477 ;;		Nothing
  1478 ;; This function is called by:
  1479 ;;		_keypad_get_value
  1480 ;; This function uses a non-reentrant model
  1481 ;;
  1482                           
  1483                           	psect	text3
  1484   001B96                     __ptext3:
  1485                           	callstack 0
  1486   001B96                     _gpio_pin_read_logic:
  1487                           	callstack 29
  1488   001B96                     
  1489                           ;Mcal_layer/GPIO/hal_gpio.c: 93:     std_returntype ret = (std_returntype)0x01;
  1490   001B96  0E01               	movlw	1
  1491   001B98  6E07               	movwf	gpio_pin_read_logic@ret^0,c
  1492                           
  1493                           ;Mcal_layer/GPIO/hal_gpio.c: 94:     if(((void*)0)==_pin_config || ((void*)0) == (logic)
      +                           ||_pin_config->pin > 8 -1)
  1494   001B9A  5001               	movf	gpio_pin_read_logic@_pin_config^0,w,c
  1495   001B9C  B4D8               	btfsc	status,2,c
  1496   001B9E  EFD3  F00D         	goto	u1631
  1497   001BA2  EFD5  F00D         	goto	u1630
  1498   001BA6                     u1631:
  1499   001BA6  EFED  F00D         	goto	l2595
  1500   001BAA                     u1630:
  1501   001BAA  5002               	movf	gpio_pin_read_logic@logic^0,w,c
  1502   001BAC  B4D8               	btfsc	status,2,c
  1503   001BAE  EFDB  F00D         	goto	u1641
  1504   001BB2  EFDD  F00D         	goto	u1640
  1505   001BB6                     u1641:
  1506   001BB6  EFED  F00D         	goto	l2595
  1507   001BBA                     u1640:
  1508   001BBA  5001               	movf	gpio_pin_read_logic@_pin_config^0,w,c
  1509   001BBC  6ED9               	movwf	fsr2l,c
  1510   001BBE  6ADA               	clrf	fsr2h,c
  1511   001BC0  30DF               	rrcf	223,w,c
  1512   001BC2  32E8               	rrcf	wreg,f,c
  1513   001BC4  32E8               	rrcf	wreg,f,c
  1514   001BC6  0B07               	andlw	7
  1515   001BC8  6E03               	movwf	??_gpio_pin_read_logic^0,c
  1516   001BCA  0E07               	movlw	7
  1517   001BCC  6403               	cpfsgt	??_gpio_pin_read_logic^0,c
  1518   001BCE  EFEB  F00D         	goto	u1651
  1519   001BD2  EFED  F00D         	goto	u1650
  1520   001BD6                     u1651:
  1521   001BD6  EFF1  F00D         	goto	l2597
  1522   001BDA                     u1650:
  1523   001BDA                     l2595:
  1524                           
  1525                           ;Mcal_layer/GPIO/hal_gpio.c: 95:     {;Mcal_layer/GPIO/hal_gpio.c: 96:         ret = (st
      +                          d_returntype)0x00 ;
  1526   001BDA  0E00               	movlw	0
  1527   001BDC  6E07               	movwf	gpio_pin_read_logic@ret^0,c
  1528                           
  1529                           ;Mcal_layer/GPIO/hal_gpio.c: 97:     }
  1530   001BDE  EF1B  F00E         	goto	l2599
  1531   001BE2                     l2597:
  1532                           
  1533                           ;Mcal_layer/GPIO/hal_gpio.c: 99:             *logic = ((*port_reg[_pin_config->port] >> 
      +                          _pin_config->pin) & (uint8)1);
  1534   001BE2  5002               	movf	gpio_pin_read_logic@logic^0,w,c
  1535   001BE4  6ED9               	movwf	fsr2l,c
  1536   001BE6  6ADA               	clrf	fsr2h,c
  1537   001BE8  5001               	movf	gpio_pin_read_logic@_pin_config^0,w,c
  1538   001BEA  6EE1               	movwf	fsr1l,c
  1539   001BEC  6AE2               	clrf	fsr1h,c
  1540   001BEE  30E7               	rrcf	231,w,c
  1541   001BF0  32E8               	rrcf	wreg,f,c
  1542   001BF2  32E8               	rrcf	wreg,f,c
  1543   001BF4  0B07               	andlw	7
  1544   001BF6  6E03               	movwf	??_gpio_pin_read_logic^0,c
  1545   001BF8  5001               	movf	gpio_pin_read_logic@_pin_config^0,w,c
  1546   001BFA  6EE1               	movwf	fsr1l,c
  1547   001BFC  6AE2               	clrf	fsr1h,c
  1548   001BFE  50E7               	movf	231,w,c
  1549   001C00  0B07               	andlw	7
  1550   001C02  0D02               	mullw	2
  1551   001C04  50F3               	movf	243,w,c
  1552   001C06  0F34               	addlw	low _port_reg
  1553   001C08  6EE1               	movwf	fsr1l,c
  1554   001C0A  6AE2               	clrf	fsr1h,c
  1555   001C0C  CFE6 F004          	movff	postinc1,??_gpio_pin_read_logic+1
  1556   001C10  CFE5 F005          	movff	postdec1,??_gpio_pin_read_logic+2
  1557   001C14  C004  FFE1         	movff	??_gpio_pin_read_logic+1,fsr1l
  1558   001C18  C005  FFE2         	movff	??_gpio_pin_read_logic+2,fsr1h
  1559   001C1C  50E7               	movf	indf1,w,c
  1560   001C1E  6E06               	movwf	(??_gpio_pin_read_logic+3)^0,c
  1561   001C20  2A03               	incf	??_gpio_pin_read_logic^0,f,c
  1562   001C22  EF15  F00E         	goto	u1664
  1563   001C26                     u1665:
  1564   001C26  90D8               	bcf	status,0,c
  1565   001C28  3206               	rrcf	(??_gpio_pin_read_logic+3)^0,f,c
  1566   001C2A                     u1664:
  1567   001C2A  2E03               	decfsz	??_gpio_pin_read_logic^0,f,c
  1568   001C2C  EF13  F00E         	goto	u1665
  1569   001C30  5006               	movf	(??_gpio_pin_read_logic+3)^0,w,c
  1570   001C32  0B01               	andlw	1
  1571   001C34  6EDF               	movwf	indf2,c
  1572   001C36                     l2599:
  1573                           
  1574                           ;Mcal_layer/GPIO/hal_gpio.c: 102:     return ret;
  1575   001C36  5007               	movf	gpio_pin_read_logic@ret^0,w,c
  1576   001C38  0012               	return		;funcret
  1577   001C3A                     __end_of_gpio_pin_read_logic:
  1578                           	callstack 0
  1579                           
  1580 ;; *************** function _application_initialize *****************
  1581 ;; Defined at:
  1582 ;;		line 98 in file "application.c"
  1583 ;; Parameters:    Size  Location     Type
  1584 ;;		None
  1585 ;; Auto vars:     Size  Location     Type
  1586 ;;  ret             1    0        unsigned char 
  1587 ;; Return value:  Size  Location     Type
  1588 ;;                  1    wreg      void 
  1589 ;; Registers used:
  1590 ;;		wreg, fsr2l, fsr2h, status,2, status,0, prodl, prodh, cstack
  1591 ;; Tracked objects:
  1592 ;;		On entry : 0/0
  1593 ;;		On exit  : 0/0
  1594 ;;		Unchanged: 0/0
  1595 ;; Data sizes:     COMRAM   BANK0   BANK1   BANK2   BANK3   BANK4   BANK5   BANK6   BANK7   BANK8   BANK9  BANK10  BANK1
      +1  BANK12  BANK13  BANK14  BANK15
  1596 ;;      Params:         0       0       0       0       0       0       0       0       0       0       0       0       
      +0       0       0       0       0
  1597 ;;      Locals:         0       0       0       0       0       0       0       0       0       0       0       0       
      +0       0       0       0       0
  1598 ;;      Temps:          0       0       0       0       0       0       0       0       0       0       0       0       
      +0       0       0       0       0
  1599 ;;      Totals:         0       0       0       0       0       0       0       0       0       0       0       0       
      +0       0       0       0       0
  1600 ;;Total ram usage:        0 bytes
  1601 ;; Hardware stack levels used: 1
  1602 ;; Hardware stack levels required when called: 4
  1603 ;; This function calls:
  1604 ;;		_keypad_initialize
  1605 ;;		_lcd_8bit_initialize
  1606 ;; This function is called by:
  1607 ;;		_main
  1608 ;; This function uses a non-reentrant model
  1609 ;;
  1610                           
  1611                           	psect	text4
  1612   0021FA                     __ptext4:
  1613                           	callstack 0
  1614   0021FA                     _application_initialize:
  1615                           	callstack 26
  1616   0021FA  0E52               	movlw	low _lcd_2
  1617   0021FC  6E11               	movwf	lcd_8bit_initialize@lcd^0,c
  1618   0021FE  EC83  F00B         	call	_lcd_8bit_initialize	;wreg free
  1619   002202  0E5C               	movlw	low _key_pad
  1620   002204  6E0C               	movwf	keypad_initialize@_keypad_obj^0,c
  1621   002206  EC93  F00E         	call	_keypad_initialize	;wreg free
  1622   00220A  0012               	return		;funcret
  1623   00220C                     __end_of_application_initialize:
  1624                           	callstack 0
  1625                           
  1626 ;; *************** function _lcd_8bit_initialize *****************
  1627 ;; Defined at:
  1628 ;;		line 129 in file "ECU_layer/LCD/ecu_lcd.c"
  1629 ;; Parameters:    Size  Location     Type
  1630 ;;  lcd             1   16[COMRAM] PTR const struct .
  1631 ;;		 -> lcd_2(10), 
  1632 ;; Auto vars:     Size  Location     Type
  1633 ;;  ret             1   19[COMRAM] unsigned char 
  1634 ;;  l_data_pins_    1   18[COMRAM] unsigned char 
  1635 ;; Return value:  Size  Location     Type
  1636 ;;                  1    wreg      unsigned char 
  1637 ;; Registers used:
  1638 ;;		wreg, fsr2l, fsr2h, status,2, status,0, prodl, prodh, cstack
  1639 ;; Tracked objects:
  1640 ;;		On entry : 0/0
  1641 ;;		On exit  : 0/0
  1642 ;;		Unchanged: 0/0
  1643 ;; Data sizes:     COMRAM   BANK0   BANK1   BANK2   BANK3   BANK4   BANK5   BANK6   BANK7   BANK8   BANK9  BANK10  BANK1
      +1  BANK12  BANK13  BANK14  BANK15
  1644 ;;      Params:         1       0       0       0       0       0       0       0       0       0       0       0       
      +0       0       0       0       0
  1645 ;;      Locals:         2       0       0       0       0       0       0       0       0       0       0       0       
      +0       0       0       0       0
  1646 ;;      Temps:          1       0       0       0       0       0       0       0       0       0       0       0       
      +0       0       0       0       0
  1647 ;;      Totals:         4       0       0       0       0       0       0       0       0       0       0       0       
      +0       0       0       0       0
  1648 ;;Total ram usage:        4 bytes
  1649 ;; Hardware stack levels used: 1
  1650 ;; Hardware stack levels required when called: 3
  1651 ;; This function calls:
  1652 ;;		_gpio_pin__initialize
  1653 ;;		_lcd_8bit_send_command
  1654 ;; This function is called by:
  1655 ;;		_application_initialize
  1656 ;; This function uses a non-reentrant model
  1657 ;;
  1658                           
  1659                           	psect	text5
  1660   001706                     __ptext5:
  1661                           	callstack 0
  1662   001706                     _lcd_8bit_initialize:
  1663                           	callstack 26
  1664   001706                     
  1665                           ;ECU_layer/LCD/ecu_lcd.c: 131:      uint8 l_data_pins_counter = 0;
  1666   001706  0E00               	movlw	0
  1667   001708  6E13               	movwf	lcd_8bit_initialize@l_data_pins_counter^0,c
  1668                           
  1669                           ;ECU_layer/LCD/ecu_lcd.c: 132:        if(((void*)0)==lcd){
  1670   00170A  5011               	movf	lcd_8bit_initialize@lcd^0,w,c
  1671   00170C  A4D8               	btfss	status,2,c
  1672   00170E  EF8B  F00B         	goto	u1681
  1673   001712  EF8D  F00B         	goto	u1680
  1674   001716                     u1681:
  1675   001716  EF91  F00B         	goto	l2641
  1676   00171A                     u1680:
  1677   00171A                     
  1678                           ;ECU_layer/LCD/ecu_lcd.c: 133:            ret = (std_returntype)0x00 ;
  1679   00171A  0E00               	movlw	0
  1680   00171C  6E14               	movwf	lcd_8bit_initialize@ret^0,c
  1681                           
  1682                           ;ECU_layer/LCD/ecu_lcd.c: 134:        }
  1683   00171E  EFF4  F00B         	goto	l2677
  1684   001722                     l2641:
  1685                           
  1686                           ;ECU_layer/LCD/ecu_lcd.c: 136:         {;ECU_layer/LCD/ecu_lcd.c: 137:            ret = 
      +                          gpio_pin__initialize(&(lcd->lcd_rs));
  1687   001722  C011  F009         	movff	lcd_8bit_initialize@lcd,gpio_pin__initialize@_pin_config
  1688   001726  ECC3  F00E         	call	_gpio_pin__initialize	;wreg free
  1689   00172A  6E14               	movwf	lcd_8bit_initialize@ret^0,c
  1690                           
  1691                           ;ECU_layer/LCD/ecu_lcd.c: 138:            ret = gpio_pin__initialize(&(lcd->lcd_en));
  1692   00172C  2811               	incf	lcd_8bit_initialize@lcd^0,w,c
  1693   00172E  6E09               	movwf	gpio_pin__initialize@_pin_config^0,c
  1694   001730  ECC3  F00E         	call	_gpio_pin__initialize	;wreg free
  1695   001734  6E14               	movwf	lcd_8bit_initialize@ret^0,c
  1696   001736                     
  1697                           ;ECU_layer/LCD/ecu_lcd.c: 139:            for (l_data_pins_counter=0;l_data_pins_counter
      +                          <8;l_data_pins_counter++){
  1698   001736  0E00               	movlw	0
  1699   001738  6E13               	movwf	lcd_8bit_initialize@l_data_pins_counter^0,c
  1700   00173A                     l2649:
  1701   00173A  5011               	movf	lcd_8bit_initialize@lcd^0,w,c
  1702   00173C  2413               	addwf	lcd_8bit_initialize@l_data_pins_counter^0,w,c
  1703   00173E  0F02               	addlw	2
  1704   001740  6E09               	movwf	gpio_pin__initialize@_pin_config^0,c
  1705   001742  ECC3  F00E         	call	_gpio_pin__initialize	;wreg free
  1706   001746                     
  1707                           ;ECU_layer/LCD/ecu_lcd.c: 141:            }
  1708   001746  2A13               	incf	lcd_8bit_initialize@l_data_pins_counter^0,f,c
  1709   001748  0E07               	movlw	7
  1710   00174A  6413               	cpfsgt	lcd_8bit_initialize@l_data_pins_counter^0,c
  1711   00174C  EFAA  F00B         	goto	u1691
  1712   001750  EFAC  F00B         	goto	u1690
  1713   001754                     u1691:
  1714   001754  EF9D  F00B         	goto	l2649
  1715   001758                     u1690:
  1716   001758                     
  1717                           ;ECU_layer/LCD/ecu_lcd.c: 142:            _delay((unsigned long)((20)*(8000000/4000.0)))
      +                          ;
  1718   001758  0E34               	movlw	52
  1719   00175A  6E12               	movwf	??_lcd_8bit_initialize^0,c
  1720   00175C  0EF2               	movlw	242
  1721   00175E                     u2177:
  1722   00175E  2EE8               	decfsz	wreg,f,c
  1723   001760  D7FE               	bra	u2177
  1724   001762  2E12               	decfsz	??_lcd_8bit_initialize^0,f,c
  1725   001764  D7FC               	bra	u2177
  1726   001766  C011  F00B         	movff	lcd_8bit_initialize@lcd,lcd_8bit_send_command@lcd
  1727   00176A  0E38               	movlw	56
  1728   00176C  6E0C               	movwf	lcd_8bit_send_command@command^0,c
  1729   00176E  EC1D  F00E         	call	_lcd_8bit_send_command	;wreg free
  1730   001772                     
  1731                           ;ECU_layer/LCD/ecu_lcd.c: 144:            _delay((unsigned long)((5)*(8000000/4000.0)));
  1732   001772  0E0D               	movlw	13
  1733   001774  6E12               	movwf	??_lcd_8bit_initialize^0,c
  1734   001776  0EFC               	movlw	252
  1735   001778                     u2187:
  1736   001778  2EE8               	decfsz	wreg,f,c
  1737   00177A  D7FE               	bra	u2187
  1738   00177C  2E12               	decfsz	??_lcd_8bit_initialize^0,f,c
  1739   00177E  D7FC               	bra	u2187
  1740   001780  C011  F00B         	movff	lcd_8bit_initialize@lcd,lcd_8bit_send_command@lcd
  1741   001784  0E38               	movlw	56
  1742   001786  6E0C               	movwf	lcd_8bit_send_command@command^0,c
  1743   001788  EC1D  F00E         	call	_lcd_8bit_send_command	;wreg free
  1744   00178C                     
  1745                           ;ECU_layer/LCD/ecu_lcd.c: 146:            _delay((unsigned long)((150)*(8000000/4000000.
      +                          0)));
  1746   00178C  0E64               	movlw	100
  1747   00178E                     u2197:
  1748   00178E  2EE8               	decfsz	wreg,f,c
  1749   001790  D7FE               	bra	u2197
  1750   001792  C011  F00B         	movff	lcd_8bit_initialize@lcd,lcd_8bit_send_command@lcd
  1751   001796  0E38               	movlw	56
  1752   001798  6E0C               	movwf	lcd_8bit_send_command@command^0,c
  1753   00179A  EC1D  F00E         	call	_lcd_8bit_send_command	;wreg free
  1754   00179E  C011  F00B         	movff	lcd_8bit_initialize@lcd,lcd_8bit_send_command@lcd
  1755   0017A2  0E01               	movlw	1
  1756   0017A4  6E0C               	movwf	lcd_8bit_send_command@command^0,c
  1757   0017A6  EC1D  F00E         	call	_lcd_8bit_send_command	;wreg free
  1758   0017AA  C011  F00B         	movff	lcd_8bit_initialize@lcd,lcd_8bit_send_command@lcd
  1759   0017AE  0E02               	movlw	2
  1760   0017B0  6E0C               	movwf	lcd_8bit_send_command@command^0,c
  1761   0017B2  EC1D  F00E         	call	_lcd_8bit_send_command	;wreg free
  1762   0017B6  C011  F00B         	movff	lcd_8bit_initialize@lcd,lcd_8bit_send_command@lcd
  1763   0017BA  0E06               	movlw	6
  1764   0017BC  6E0C               	movwf	lcd_8bit_send_command@command^0,c
  1765   0017BE  EC1D  F00E         	call	_lcd_8bit_send_command	;wreg free
  1766   0017C2  C011  F00B         	movff	lcd_8bit_initialize@lcd,lcd_8bit_send_command@lcd
  1767   0017C6  0E0C               	movlw	12
  1768   0017C8  6E0C               	movwf	lcd_8bit_send_command@command^0,c
  1769   0017CA  EC1D  F00E         	call	_lcd_8bit_send_command	;wreg free
  1770   0017CE  C011  F00B         	movff	lcd_8bit_initialize@lcd,lcd_8bit_send_command@lcd
  1771   0017D2  0E38               	movlw	56
  1772   0017D4  6E0C               	movwf	lcd_8bit_send_command@command^0,c
  1773   0017D6  EC1D  F00E         	call	_lcd_8bit_send_command	;wreg free
  1774   0017DA                     
  1775                           ;ECU_layer/LCD/ecu_lcd.c: 153:            ret = lcd_8bit_send_command(lcd,0x80);
  1776   0017DA  C011  F00B         	movff	lcd_8bit_initialize@lcd,lcd_8bit_send_command@lcd
  1777   0017DE  0E80               	movlw	128
  1778   0017E0  6E0C               	movwf	lcd_8bit_send_command@command^0,c
  1779   0017E2  EC1D  F00E         	call	_lcd_8bit_send_command	;wreg free
  1780   0017E6  6E14               	movwf	lcd_8bit_initialize@ret^0,c
  1781   0017E8                     l2677:
  1782                           
  1783                           ;ECU_layer/LCD/ecu_lcd.c: 155:      return ret;
  1784   0017E8  5014               	movf	lcd_8bit_initialize@ret^0,w,c
  1785   0017EA  0012               	return		;funcret
  1786   0017EC                     __end_of_lcd_8bit_initialize:
  1787                           	callstack 0
  1788                           
  1789 ;; *************** function _keypad_initialize *****************
  1790 ;; Defined at:
  1791 ;;		line 20 in file "ECU_layer/keypad/ecu_key_pad.c"
  1792 ;; Parameters:    Size  Location     Type
  1793 ;;  _keypad_obj     1   11[COMRAM] PTR const struct .
  1794 ;;		 -> key_pad(8), 
  1795 ;; Auto vars:     Size  Location     Type
  1796 ;;  columns_coun    1   13[COMRAM] unsigned char 
  1797 ;;  rows_counter    1   12[COMRAM] unsigned char 
  1798 ;;  ret             1    0        unsigned char 
  1799 ;; Return value:  Size  Location     Type
  1800 ;;                  1    wreg      unsigned char 
  1801 ;; Registers used:
  1802 ;;		wreg, fsr2l, fsr2h, status,2, status,0, prodl, prodh, cstack
  1803 ;; Tracked objects:
  1804 ;;		On entry : 0/0
  1805 ;;		On exit  : 0/0
  1806 ;;		Unchanged: 0/0
  1807 ;; Data sizes:     COMRAM   BANK0   BANK1   BANK2   BANK3   BANK4   BANK5   BANK6   BANK7   BANK8   BANK9  BANK10  BANK1
      +1  BANK12  BANK13  BANK14  BANK15
  1808 ;;      Params:         1       0       0       0       0       0       0       0       0       0       0       0       
      +0       0       0       0       0
  1809 ;;      Locals:         2       0       0       0       0       0       0       0       0       0       0       0       
      +0       0       0       0       0
  1810 ;;      Temps:          0       0       0       0       0       0       0       0       0       0       0       0       
      +0       0       0       0       0
  1811 ;;      Totals:         3       0       0       0       0       0       0       0       0       0       0       0       
      +0       0       0       0       0
  1812 ;;Total ram usage:        3 bytes
  1813 ;; Hardware stack levels used: 1
  1814 ;; Hardware stack levels required when called: 2
  1815 ;; This function calls:
  1816 ;;		_gpio_pin__initialize
  1817 ;;		_gpio_pin_direction_initialize
  1818 ;; This function is called by:
  1819 ;;		_application_initialize
  1820 ;; This function uses a non-reentrant model
  1821 ;;
  1822                           
  1823                           	psect	text6
  1824   001D26                     __ptext6:
  1825                           	callstack 0
  1826   001D26                     _keypad_initialize:
  1827                           	callstack 27
  1828   001D26                     
  1829                           ;ECU_layer/keypad/ecu_key_pad.c: 22:     uint8 rows_counter = 0, columns_counter = 0;
  1830   001D26  0E00               	movlw	0
  1831   001D28  6E0D               	movwf	keypad_initialize@rows_counter^0,c
  1832   001D2A  0E00               	movlw	0
  1833   001D2C  6E0E               	movwf	keypad_initialize@columns_counter^0,c
  1834                           
  1835                           ;ECU_layer/keypad/ecu_key_pad.c: 23:        if(((void*)0)==_keypad_obj){
  1836   001D2E  500C               	movf	keypad_initialize@_keypad_obj^0,w,c
  1837   001D30  A4D8               	btfss	status,2,c
  1838   001D32  EF9D  F00E         	goto	u1601
  1839   001D36  EF9F  F00E         	goto	u1600
  1840   001D3A                     u1601:
  1841   001D3A  EFA1  F00E         	goto	l2565
  1842   001D3E                     u1600:
  1843   001D3E                     
  1844                           ;ECU_layer/keypad/ecu_key_pad.c: 25:        }
  1845   001D3E  EFC2  F00E         	goto	l21
  1846   001D42                     l2565:
  1847                           
  1848                           ;ECU_layer/keypad/ecu_key_pad.c: 27:         {;ECU_layer/keypad/ecu_key_pad.c: 28:      
      +                                for(rows_counter = 0 ;rows_counter<4;rows_counter++){
  1849   001D42  0E00               	movlw	0
  1850   001D44  6E0D               	movwf	keypad_initialize@rows_counter^0,c
  1851   001D46                     l2571:
  1852   001D46  500C               	movf	keypad_initialize@_keypad_obj^0,w,c
  1853   001D48  240D               	addwf	keypad_initialize@rows_counter^0,w,c
  1854   001D4A  6E09               	movwf	gpio_pin__initialize@_pin_config^0,c
  1855   001D4C  ECC3  F00E         	call	_gpio_pin__initialize	;wreg free
  1856   001D50                     
  1857                           ;ECU_layer/keypad/ecu_key_pad.c: 30:            }
  1858   001D50  2A0D               	incf	keypad_initialize@rows_counter^0,f,c
  1859   001D52  0E03               	movlw	3
  1860   001D54  640D               	cpfsgt	keypad_initialize@rows_counter^0,c
  1861   001D56  EFAF  F00E         	goto	u1611
  1862   001D5A  EFB1  F00E         	goto	u1610
  1863   001D5E                     u1611:
  1864   001D5E  EFA3  F00E         	goto	l2571
  1865   001D62                     u1610:
  1866   001D62                     
  1867                           ;ECU_layer/keypad/ecu_key_pad.c: 31:             for(columns_counter = 0;columns_counter
      +                          <4;columns_counter++){
  1868   001D62  0E00               	movlw	0
  1869   001D64  6E0E               	movwf	keypad_initialize@columns_counter^0,c
  1870   001D66                     l2583:
  1871   001D66  500C               	movf	keypad_initialize@_keypad_obj^0,w,c
  1872   001D68  240E               	addwf	keypad_initialize@columns_counter^0,w,c
  1873   001D6A  0F04               	addlw	4
  1874   001D6C  6E01               	movwf	gpio_pin_direction_initialize@_pin_config^0,c
  1875   001D6E  EC68  F00A         	call	_gpio_pin_direction_initialize	;wreg free
  1876   001D72                     
  1877                           ;ECU_layer/keypad/ecu_key_pad.c: 33:            }
  1878   001D72  2A0E               	incf	keypad_initialize@columns_counter^0,f,c
  1879   001D74  0E03               	movlw	3
  1880   001D76  640E               	cpfsgt	keypad_initialize@columns_counter^0,c
  1881   001D78  EFC0  F00E         	goto	u1621
  1882   001D7C  EFC2  F00E         	goto	u1620
  1883   001D80                     u1621:
  1884   001D80  EFB3  F00E         	goto	l2583
  1885   001D84                     u1620:
  1886   001D84                     l21:
  1887   001D84  0012               	return		;funcret
  1888   001D86                     __end_of_keypad_initialize:
  1889                           	callstack 0
  1890                           
  1891 ;; *************** function _gpio_pin__initialize *****************
  1892 ;; Defined at:
  1893 ;;		line 232 in file "Mcal_layer/GPIO/hal_gpio.c"
  1894 ;; Parameters:    Size  Location     Type
  1895 ;;  _pin_config     1    8[COMRAM] PTR const struct .
  1896 ;;		 -> lcd_2$lcd_data(8), lcd_2(10), key_pad$keypad_row_pins(4), key_pad(8), 
  1897 ;; Auto vars:     Size  Location     Type
  1898 ;;  ret             1   10[COMRAM] unsigned char 
  1899 ;; Return value:  Size  Location     Type
  1900 ;;                  1    wreg      unsigned char 
  1901 ;; Registers used:
  1902 ;;		wreg, fsr2l, fsr2h, status,2, status,0, prodl, prodh, cstack
  1903 ;; Tracked objects:
  1904 ;;		On entry : 0/0
  1905 ;;		On exit  : 0/0
  1906 ;;		Unchanged: 0/0
  1907 ;; Data sizes:     COMRAM   BANK0   BANK1   BANK2   BANK3   BANK4   BANK5   BANK6   BANK7   BANK8   BANK9  BANK10  BANK1
      +1  BANK12  BANK13  BANK14  BANK15
  1908 ;;      Params:         1       0       0       0       0       0       0       0       0       0       0       0       
      +0       0       0       0       0
  1909 ;;      Locals:         1       0       0       0       0       0       0       0       0       0       0       0       
      +0       0       0       0       0
  1910 ;;      Temps:          1       0       0       0       0       0       0       0       0       0       0       0       
      +0       0       0       0       0
  1911 ;;      Totals:         3       0       0       0       0       0       0       0       0       0       0       0       
      +0       0       0       0       0
  1912 ;;Total ram usage:        3 bytes
  1913 ;; Hardware stack levels used: 1
  1914 ;; Hardware stack levels required when called: 1
  1915 ;; This function calls:
  1916 ;;		_gpio_pin_direction_initialize
  1917 ;;		_gpio_pin_write_logic
  1918 ;; This function is called by:
  1919 ;;		_keypad_initialize
  1920 ;;		_lcd_8bit_initialize
  1921 ;;		_lcd_4bit_initialize
  1922 ;; This function uses a non-reentrant model
  1923 ;;
  1924                           
  1925                           	psect	text7
  1926   001D86                     __ptext7:
  1927                           	callstack 0
  1928   001D86                     _gpio_pin__initialize:
  1929                           	callstack 27
  1930   001D86                     
  1931                           ;Mcal_layer/GPIO/hal_gpio.c: 234:     if(((void*)0)==_pin_config ||_pin_config->pin > 8 
      +                          -1)
  1932   001D86  5009               	movf	gpio_pin__initialize@_pin_config^0,w,c
  1933   001D88  B4D8               	btfsc	status,2,c
  1934   001D8A  EFC9  F00E         	goto	u1551
  1935   001D8E  EFCB  F00E         	goto	u1550
  1936   001D92                     u1551:
  1937   001D92  EFDB  F00E         	goto	l2497
  1938   001D96                     u1550:
  1939   001D96  5009               	movf	gpio_pin__initialize@_pin_config^0,w,c
  1940   001D98  6ED9               	movwf	fsr2l,c
  1941   001D9A  6ADA               	clrf	fsr2h,c
  1942   001D9C  30DF               	rrcf	223,w,c
  1943   001D9E  32E8               	rrcf	wreg,f,c
  1944   001DA0  32E8               	rrcf	wreg,f,c
  1945   001DA2  0B07               	andlw	7
  1946   001DA4  6E0A               	movwf	??_gpio_pin__initialize^0,c
  1947   001DA6  0E07               	movlw	7
  1948   001DA8  640A               	cpfsgt	??_gpio_pin__initialize^0,c
  1949   001DAA  EFD9  F00E         	goto	u1561
  1950   001DAE  EFDB  F00E         	goto	u1560
  1951   001DB2                     u1561:
  1952   001DB2  EFDF  F00E         	goto	l2499
  1953   001DB6                     u1560:
  1954   001DB6                     l2497:
  1955                           
  1956                           ;Mcal_layer/GPIO/hal_gpio.c: 235:     {;Mcal_layer/GPIO/hal_gpio.c: 236:         ret = (
      +                          std_returntype)0x00 ;
  1957   001DB6  0E00               	movlw	0
  1958   001DB8  6E0B               	movwf	gpio_pin__initialize@ret^0,c
  1959                           
  1960                           ;Mcal_layer/GPIO/hal_gpio.c: 237:     }
  1961   001DBA  EFF0  F00E         	goto	l2501
  1962   001DBE                     l2499:
  1963                           
  1964                           ;Mcal_layer/GPIO/hal_gpio.c: 239:         {;Mcal_layer/GPIO/hal_gpio.c: 240:         ret
      +                           = gpio_pin_direction_initialize(_pin_config);
  1965   001DBE  C009  F001         	movff	gpio_pin__initialize@_pin_config,gpio_pin_direction_initialize@_pin_config
  1966   001DC2  EC68  F00A         	call	_gpio_pin_direction_initialize	;wreg free
  1967   001DC6  6E0B               	movwf	gpio_pin__initialize@ret^0,c
  1968                           
  1969                           ;Mcal_layer/GPIO/hal_gpio.c: 241:         ret = gpio_pin_write_logic(_pin_config,_pin_co
      +                          nfig->logic);
  1970   001DC8  C009  F001         	movff	gpio_pin__initialize@_pin_config,gpio_pin_write_logic@_pin_config
  1971   001DCC  5009               	movf	gpio_pin__initialize@_pin_config^0,w,c
  1972   001DCE  6ED9               	movwf	fsr2l,c
  1973   001DD0  6ADA               	clrf	fsr2h,c
  1974   001DD2  0E00               	movlw	0
  1975   001DD4  BCDF               	btfsc	indf2,6,c
  1976   001DD6  0E01               	movlw	1
  1977   001DD8  6E02               	movwf	gpio_pin_write_logic@logic^0,c
  1978   001DDA  ECFB  F00A         	call	_gpio_pin_write_logic	;wreg free
  1979   001DDE  6E0B               	movwf	gpio_pin__initialize@ret^0,c
  1980   001DE0                     l2501:
  1981                           
  1982                           ;Mcal_layer/GPIO/hal_gpio.c: 243:     return ret;
  1983   001DE0  500B               	movf	gpio_pin__initialize@ret^0,w,c
  1984   001DE2  0012               	return		;funcret
  1985   001DE4                     __end_of_gpio_pin__initialize:
  1986                           	callstack 0
  1987                           
  1988 ;; *************** function _gpio_pin_direction_initialize *****************
  1989 ;; Defined at:
  1990 ;;		line 15 in file "Mcal_layer/GPIO/hal_gpio.c"
  1991 ;; Parameters:    Size  Location     Type
  1992 ;;  _pin_config     1    0[COMRAM] PTR const struct .
  1993 ;;		 -> lcd_2$lcd_data(8), lcd_2(10), key_pad$keypad_column_pins(4), key_pad$keypad_row_pins(4), 
  1994 ;;		 -> key_pad(8), 
  1995 ;; Auto vars:     Size  Location     Type
  1996 ;;  ret             1    6[COMRAM] unsigned char 
  1997 ;; Return value:  Size  Location     Type
  1998 ;;                  1    wreg      unsigned char 
  1999 ;; Registers used:
  2000 ;;		wreg, fsr2l, fsr2h, status,2, status,0, prodl, prodh
  2001 ;; Tracked objects:
  2002 ;;		On entry : 0/0
  2003 ;;		On exit  : 0/0
  2004 ;;		Unchanged: 0/0
  2005 ;; Data sizes:     COMRAM   BANK0   BANK1   BANK2   BANK3   BANK4   BANK5   BANK6   BANK7   BANK8   BANK9  BANK10  BANK1
      +1  BANK12  BANK13  BANK14  BANK15
  2006 ;;      Params:         1       0       0       0       0       0       0       0       0       0       0       0       
      +0       0       0       0       0
  2007 ;;      Locals:         1       0       0       0       0       0       0       0       0       0       0       0       
      +0       0       0       0       0
  2008 ;;      Temps:          5       0       0       0       0       0       0       0       0       0       0       0       
      +0       0       0       0       0
  2009 ;;      Totals:         7       0       0       0       0       0       0       0       0       0       0       0       
      +0       0       0       0       0
  2010 ;;Total ram usage:        7 bytes
  2011 ;; Hardware stack levels used: 1
  2012 ;; This function calls:
  2013 ;;		Nothing
  2014 ;; This function is called by:
  2015 ;;		_keypad_initialize
  2016 ;;		_gpio_pin__initialize
  2017 ;; This function uses a non-reentrant model
  2018 ;;
  2019                           
  2020                           	psect	text8
  2021   0014D0                     __ptext8:
  2022                           	callstack 0
  2023   0014D0                     _gpio_pin_direction_initialize:
  2024                           	callstack 27
  2025   0014D0                     
  2026                           ;Mcal_layer/GPIO/hal_gpio.c: 16:     std_returntype ret = (std_returntype)0x01;
  2027   0014D0  0E01               	movlw	1
  2028   0014D2  6E07               	movwf	gpio_pin_direction_initialize@ret^0,c
  2029                           
  2030                           ;Mcal_layer/GPIO/hal_gpio.c: 17:     if(((void*)0)==_pin_config ||_pin_config->pin > 8 -
      +                          1)
  2031   0014D4  5001               	movf	gpio_pin_direction_initialize@_pin_config^0,w,c
  2032   0014D6  B4D8               	btfsc	status,2,c
  2033   0014D8  EF70  F00A         	goto	u1421
  2034   0014DC  EF72  F00A         	goto	u1420
  2035   0014E0                     u1421:
  2036   0014E0  EF82  F00A         	goto	l2417
  2037   0014E4                     u1420:
  2038   0014E4  5001               	movf	gpio_pin_direction_initialize@_pin_config^0,w,c
  2039   0014E6  6ED9               	movwf	fsr2l,c
  2040   0014E8  6ADA               	clrf	fsr2h,c
  2041   0014EA  30DF               	rrcf	223,w,c
  2042   0014EC  32E8               	rrcf	wreg,f,c
  2043   0014EE  32E8               	rrcf	wreg,f,c
  2044   0014F0  0B07               	andlw	7
  2045   0014F2  6E02               	movwf	??_gpio_pin_direction_initialize^0,c
  2046   0014F4  0E07               	movlw	7
  2047   0014F6  6402               	cpfsgt	??_gpio_pin_direction_initialize^0,c
  2048   0014F8  EF80  F00A         	goto	u1431
  2049   0014FC  EF82  F00A         	goto	u1430
  2050   001500                     u1431:
  2051   001500  EFD9  F00A         	goto	l2425
  2052   001504                     u1430:
  2053   001504                     l2417:
  2054                           
  2055                           ;Mcal_layer/GPIO/hal_gpio.c: 18:     {;Mcal_layer/GPIO/hal_gpio.c: 19:         ret = (st
      +                          d_returntype)0x00 ;
  2056   001504  0E00               	movlw	0
  2057   001506  6E07               	movwf	gpio_pin_direction_initialize@ret^0,c
  2058                           
  2059                           ;Mcal_layer/GPIO/hal_gpio.c: 20:     }
  2060   001508  EFF9  F00A         	goto	l2427
  2061   00150C                     l2419:
  2062                           
  2063                           ;Mcal_layer/GPIO/hal_gpio.c: 25:                 (*tris_reg[_pin_config->port]&=~((uint8
      +                          )1<<_pin_config->pin));
  2064   00150C  5001               	movf	gpio_pin_direction_initialize@_pin_config^0,w,c
  2065   00150E  6ED9               	movwf	fsr2l,c
  2066   001510  6ADA               	clrf	fsr2h,c
  2067   001512  30DF               	rrcf	223,w,c
  2068   001514  32E8               	rrcf	wreg,f,c
  2069   001516  32E8               	rrcf	wreg,f,c
  2070   001518  0B07               	andlw	7
  2071   00151A  6E02               	movwf	??_gpio_pin_direction_initialize^0,c
  2072   00151C  0E01               	movlw	1
  2073   00151E  6E03               	movwf	(??_gpio_pin_direction_initialize+1)^0,c
  2074   001520  2A02               	incf	??_gpio_pin_direction_initialize^0,f,c
  2075   001522  EF95  F00A         	goto	u1444
  2076   001526                     u1445:
  2077   001526  90D8               	bcf	status,0,c
  2078   001528  3603               	rlcf	(??_gpio_pin_direction_initialize+1)^0,f,c
  2079   00152A                     u1444:
  2080   00152A  2E02               	decfsz	??_gpio_pin_direction_initialize^0,f,c
  2081   00152C  EF93  F00A         	goto	u1445
  2082   001530  5003               	movf	(??_gpio_pin_direction_initialize+1)^0,w,c
  2083   001532  0AFF               	xorlw	255
  2084   001534  6E04               	movwf	(??_gpio_pin_direction_initialize+2)^0,c
  2085   001536  5001               	movf	gpio_pin_direction_initialize@_pin_config^0,w,c
  2086   001538  6ED9               	movwf	fsr2l,c
  2087   00153A  6ADA               	clrf	fsr2h,c
  2088   00153C  50DF               	movf	223,w,c
  2089   00153E  0B07               	andlw	7
  2090   001540  0D02               	mullw	2
  2091   001542  50F3               	movf	243,w,c
  2092   001544  0F48               	addlw	low _tris_reg
  2093   001546  6ED9               	movwf	fsr2l,c
  2094   001548  6ADA               	clrf	fsr2h,c
  2095   00154A  CFDE F005          	movff	postinc2,??_gpio_pin_direction_initialize+3
  2096   00154E  CFDD F006          	movff	postdec2,??_gpio_pin_direction_initialize+4
  2097   001552  C005  FFD9         	movff	??_gpio_pin_direction_initialize+3,fsr2l
  2098   001556  C006  FFDA         	movff	??_gpio_pin_direction_initialize+4,fsr2h
  2099   00155A  5004               	movf	(??_gpio_pin_direction_initialize+2)^0,w,c
  2100   00155C  16DF               	andwf	indf2,f,c
  2101                           
  2102                           ;Mcal_layer/GPIO/hal_gpio.c: 26:                 break;
  2103   00155E  EFF9  F00A         	goto	l2427
  2104   001562                     l2421:
  2105                           
  2106                           ;Mcal_layer/GPIO/hal_gpio.c: 28:                 (*tris_reg[_pin_config->port]|=((uint8)
      +                          1<<_pin_config->pin));
  2107   001562  5001               	movf	gpio_pin_direction_initialize@_pin_config^0,w,c
  2108   001564  6ED9               	movwf	fsr2l,c
  2109   001566  6ADA               	clrf	fsr2h,c
  2110   001568  30DF               	rrcf	223,w,c
  2111   00156A  32E8               	rrcf	wreg,f,c
  2112   00156C  32E8               	rrcf	wreg,f,c
  2113   00156E  0B07               	andlw	7
  2114   001570  6E02               	movwf	??_gpio_pin_direction_initialize^0,c
  2115   001572  0E01               	movlw	1
  2116   001574  6E03               	movwf	(??_gpio_pin_direction_initialize+1)^0,c
  2117   001576  2A02               	incf	??_gpio_pin_direction_initialize^0,f,c
  2118   001578  EFC0  F00A         	goto	u1454
  2119   00157C                     u1455:
  2120   00157C  90D8               	bcf	status,0,c
  2121   00157E  3603               	rlcf	(??_gpio_pin_direction_initialize+1)^0,f,c
  2122   001580                     u1454:
  2123   001580  2E02               	decfsz	??_gpio_pin_direction_initialize^0,f,c
  2124   001582  EFBE  F00A         	goto	u1455
  2125   001586  5001               	movf	gpio_pin_direction_initialize@_pin_config^0,w,c
  2126   001588  6ED9               	movwf	fsr2l,c
  2127   00158A  6ADA               	clrf	fsr2h,c
  2128   00158C  50DF               	movf	223,w,c
  2129   00158E  0B07               	andlw	7
  2130   001590  0D02               	mullw	2
  2131   001592  50F3               	movf	243,w,c
  2132   001594  0F48               	addlw	low _tris_reg
  2133   001596  6ED9               	movwf	fsr2l,c
  2134   001598  6ADA               	clrf	fsr2h,c
  2135   00159A  CFDE F004          	movff	postinc2,??_gpio_pin_direction_initialize+2
  2136   00159E  CFDD F005          	movff	postdec2,??_gpio_pin_direction_initialize+3
  2137   0015A2  C004  FFD9         	movff	??_gpio_pin_direction_initialize+2,fsr2l
  2138   0015A6  C005  FFDA         	movff	??_gpio_pin_direction_initialize+3,fsr2h
  2139   0015AA  5003               	movf	(??_gpio_pin_direction_initialize+1)^0,w,c
  2140   0015AC  12DF               	iorwf	indf2,f,c
  2141                           
  2142                           ;Mcal_layer/GPIO/hal_gpio.c: 29:                 break;
  2143   0015AE  EFF9  F00A         	goto	l2427
  2144   0015B2                     l2425:
  2145   0015B2  5001               	movf	gpio_pin_direction_initialize@_pin_config^0,w,c
  2146   0015B4  6ED9               	movwf	fsr2l,c
  2147   0015B6  6ADA               	clrf	fsr2h,c
  2148   0015B8  BEDF               	btfsc	indf2,7,c
  2149   0015BA  EFE1  F00A         	goto	u1461
  2150   0015BE  EFE4  F00A         	goto	u1460
  2151   0015C2                     u1461:
  2152   0015C2  0E01               	movlw	1
  2153   0015C4  EFE5  F00A         	goto	u1470
  2154   0015C8                     u1460:
  2155   0015C8  0E00               	movlw	0
  2156   0015CA                     u1470:
  2157   0015CA  6E02               	movwf	??_gpio_pin_direction_initialize^0,c
  2158   0015CC  6A03               	clrf	(??_gpio_pin_direction_initialize+1)^0,c
  2159                           
  2160                           ; Switch on 2 bytes has been partitioned into a top level switch of size 1, and 1 sub-sw
      +                          itches
  2161                           ; Switch size 1, requested type "simple"
  2162                           ; Number of cases is 1, Range of values is 0 to 0
  2163                           ; switch strategies available:
  2164                           ; Name         Instructions Cycles
  2165                           ; simple_byte            4     3 (average)
  2166                           ;	Chosen strategy is simple_byte
  2167   0015CE  5003               	movf	(??_gpio_pin_direction_initialize+1)^0,w,c
  2168   0015D0  0A00               	xorlw	0	; case 0
  2169   0015D2  B4D8               	btfsc	status,2,c
  2170   0015D4  EFEE  F00A         	goto	l3139
  2171   0015D8  EF82  F00A         	goto	l2417
  2172   0015DC                     l3139:
  2173                           
  2174                           ; Switch size 1, requested type "simple"
  2175                           ; Number of cases is 2, Range of values is 0 to 1
  2176                           ; switch strategies available:
  2177                           ; Name         Instructions Cycles
  2178                           ; simple_byte            7     4 (average)
  2179                           ;	Chosen strategy is simple_byte
  2180   0015DC  5002               	movf	??_gpio_pin_direction_initialize^0,w,c
  2181   0015DE  0A00               	xorlw	0	; case 0
  2182   0015E0  B4D8               	btfsc	status,2,c
  2183   0015E2  EF86  F00A         	goto	l2419
  2184   0015E6  0A01               	xorlw	1	; case 1
  2185   0015E8  B4D8               	btfsc	status,2,c
  2186   0015EA  EFB1  F00A         	goto	l2421
  2187   0015EE  EF82  F00A         	goto	l2417
  2188   0015F2                     l2427:
  2189                           
  2190                           ;Mcal_layer/GPIO/hal_gpio.c: 34:     return ret;
  2191   0015F2  5007               	movf	gpio_pin_direction_initialize@ret^0,w,c
  2192   0015F4  0012               	return		;funcret
  2193   0015F6                     __end_of_gpio_pin_direction_initialize:
  2194                           	callstack 0
  2195                           
  2196 ;; *************** function _Sub_operation *****************
  2197 ;; Defined at:
  2198 ;;		line 113 in file "application.c"
  2199 ;; Parameters:    Size  Location     Type
  2200 ;;		None
  2201 ;; Auto vars:     Size  Location     Type
  2202 ;;  num2            1   47[COMRAM] unsigned char 
  2203 ;;  num1            1   46[COMRAM] unsigned char 
  2204 ;; Return value:  Size  Location     Type
  2205 ;;                  1    wreg      void 
  2206 ;; Registers used:
  2207 ;;		wreg, fsr1l, fsr1h, fsr2l, fsr2h, status,2, status,0, tblptrl, tblptrh, tblptru, prodl, prodh, cstack
  2208 ;; Tracked objects:
  2209 ;;		On entry : 0/0
  2210 ;;		On exit  : 0/0
  2211 ;;		Unchanged: 0/0
  2212 ;; Data sizes:     COMRAM   BANK0   BANK1   BANK2   BANK3   BANK4   BANK5   BANK6   BANK7   BANK8   BANK9  BANK10  BANK1
      +1  BANK12  BANK13  BANK14  BANK15
  2213 ;;      Params:         0       0       0       0       0       0       0       0       0       0       0       0       
      +0       0       0       0       0
  2214 ;;      Locals:         2       0       0       0       0       0       0       0       0       0       0       0       
      +0       0       0       0       0
  2215 ;;      Temps:          0       0       0       0       0       0       0       0       0       0       0       0       
      +0       0       0       0       0
  2216 ;;      Totals:         2       0       0       0       0       0       0       0       0       0       0       0       
      +0       0       0       0       0
  2217 ;;Total ram usage:        2 bytes
  2218 ;; Hardware stack levels used: 1
  2219 ;; Hardware stack levels required when called: 6
  2220 ;; This function calls:
  2221 ;;		_convert_int_to_string
  2222 ;;		_lcd_8bit_send_string_pos
  2223 ;; This function is called by:
  2224 ;;		_main
  2225 ;; This function uses a non-reentrant model
  2226 ;;
  2227                           
  2228                           	psect	text9
  2229   001E94                     __ptext9:
  2230                           	callstack 0
  2231   001E94                     _Sub_operation:
  2232                           	callstack 24
  2233   001E94                     
  2234                           ;application.c: 114:     uint8 num1,num2;;application.c: 115:     num1= (num1_digit2-48)
      +                          +10*(num1_digit1-48);
  2235   001E94  507B               	movf	_num1_digit1^0,w,c
  2236   001E96  0D0A               	mullw	10
  2237   001E98  50F3               	movf	243,w,c
  2238   001E9A  2478               	addwf	_num1_digit2^0,w,c
  2239   001E9C  0FF0               	addlw	240
  2240   001E9E  6E2F               	movwf	Sub_operation@num1^0,c
  2241                           
  2242                           ;application.c: 116:     num2 = (num2_digit2-48)+10*(num2_digit1-48);
  2243   001EA0  5079               	movf	_num2_digit1^0,w,c
  2244   001EA2  0D0A               	mullw	10
  2245   001EA4  50F3               	movf	243,w,c
  2246   001EA6  2477               	addwf	_num2_digit2^0,w,c
  2247   001EA8  0FF0               	addlw	240
  2248   001EAA  6E30               	movwf	Sub_operation@num2^0,c
  2249   001EAC                     
  2250                           ;application.c: 117:    result = num1 - num2;
  2251   001EAC  5030               	movf	Sub_operation@num2^0,w,c
  2252   001EAE  5C2F               	subwf	Sub_operation@num1^0,w,c
  2253   001EB0  6E6E               	movwf	_result^0,c
  2254   001EB2  6A6F               	clrf	(_result+1)^0,c
  2255   001EB4  A0D8               	btfss	status,0,c
  2256   001EB6  066F               	decf	(_result+1)^0,f,c
  2257   001EB8                     
  2258                           ;application.c: 118:    ret = convert_int_to_string(result , str);
  2259   001EB8  C06E  F02B         	movff	_result,convert_int_to_string@value
  2260   001EBC  C06F  F02C         	movff	_result+1,convert_int_to_string@value+1
  2261   001EC0  0E72               	movlw	low _str
  2262   001EC2  6E2D               	movwf	convert_int_to_string@str^0,c
  2263   001EC4  ECE4  F00F         	call	_convert_int_to_string	;wreg free
  2264   001EC8  6E7A               	movwf	_ret^0,c
  2265   001ECA                     
  2266                           ;application.c: 119:    ret = lcd_8bit_send_string_pos(&lcd_2,1,11,str);
  2267   001ECA  0E52               	movlw	low _lcd_2
  2268   001ECC  6E17               	movwf	lcd_8bit_send_string_pos@lcd^0,c
  2269   001ECE  0E01               	movlw	1
  2270   001ED0  6E18               	movwf	lcd_8bit_send_string_pos@row^0,c
  2271   001ED2  0E0B               	movlw	11
  2272   001ED4  6E19               	movwf	lcd_8bit_send_string_pos@column^0,c
  2273   001ED6  0E72               	movlw	low _str
  2274   001ED8  6E1A               	movwf	lcd_8bit_send_string_pos@str^0,c
  2275   001EDA  EC68  F010         	call	_lcd_8bit_send_string_pos	;wreg free
  2276   001EDE  6E7A               	movwf	_ret^0,c
  2277   001EE0  0012               	return		;funcret
  2278   001EE2                     __end_of_Sub_operation:
  2279                           	callstack 0
  2280                           
  2281 ;; *************** function _Mult_operation *****************
  2282 ;; Defined at:
  2283 ;;		line 122 in file "application.c"
  2284 ;; Parameters:    Size  Location     Type
  2285 ;;		None
  2286 ;; Auto vars:     Size  Location     Type
  2287 ;;  num2            1   47[COMRAM] unsigned char 
  2288 ;;  num1            1   46[COMRAM] unsigned char 
  2289 ;; Return value:  Size  Location     Type
  2290 ;;                  1    wreg      void 
  2291 ;; Registers used:
  2292 ;;		wreg, fsr1l, fsr1h, fsr2l, fsr2h, status,2, status,0, tblptrl, tblptrh, tblptru, prodl, prodh, cstack
  2293 ;; Tracked objects:
  2294 ;;		On entry : 0/0
  2295 ;;		On exit  : 0/0
  2296 ;;		Unchanged: 0/0
  2297 ;; Data sizes:     COMRAM   BANK0   BANK1   BANK2   BANK3   BANK4   BANK5   BANK6   BANK7   BANK8   BANK9  BANK10  BANK1
      +1  BANK12  BANK13  BANK14  BANK15
  2298 ;;      Params:         0       0       0       0       0       0       0       0       0       0       0       0       
      +0       0       0       0       0
  2299 ;;      Locals:         2       0       0       0       0       0       0       0       0       0       0       0       
      +0       0       0       0       0
  2300 ;;      Temps:          0       0       0       0       0       0       0       0       0       0       0       0       
      +0       0       0       0       0
  2301 ;;      Totals:         2       0       0       0       0       0       0       0       0       0       0       0       
      +0       0       0       0       0
  2302 ;;Total ram usage:        2 bytes
  2303 ;; Hardware stack levels used: 1
  2304 ;; Hardware stack levels required when called: 6
  2305 ;; This function calls:
  2306 ;;		_convert_int_to_string
  2307 ;;		_lcd_8bit_send_string_pos
  2308 ;; This function is called by:
  2309 ;;		_main
  2310 ;; This function uses a non-reentrant model
  2311 ;;
  2312                           
  2313                           	psect	text10
  2314   001EE2                     __ptext10:
  2315                           	callstack 0
  2316   001EE2                     _Mult_operation:
  2317                           	callstack 24
  2318   001EE2                     
  2319                           ;application.c: 123:     uint8 num1,num2;;application.c: 124:     num1= (num1_digit2-48)
      +                          +10*(num1_digit1-48);
  2320   001EE2  507B               	movf	_num1_digit1^0,w,c
  2321   001EE4  0D0A               	mullw	10
  2322   001EE6  50F3               	movf	243,w,c
  2323   001EE8  2478               	addwf	_num1_digit2^0,w,c
  2324   001EEA  0FF0               	addlw	240
  2325   001EEC  6E2F               	movwf	Mult_operation@num1^0,c
  2326                           
  2327                           ;application.c: 125:     num2 = (num2_digit2-48)+10*(num2_digit1-48);
  2328   001EEE  5079               	movf	_num2_digit1^0,w,c
  2329   001EF0  0D0A               	mullw	10
  2330   001EF2  50F3               	movf	243,w,c
  2331   001EF4  2477               	addwf	_num2_digit2^0,w,c
  2332   001EF6  0FF0               	addlw	240
  2333   001EF8  6E30               	movwf	Mult_operation@num2^0,c
  2334                           
  2335                           ;application.c: 126:     result = num1 * num2;
  2336   001EFA  502F               	movf	Mult_operation@num1^0,w,c
  2337   001EFC  0230               	mulwf	Mult_operation@num2^0,c
  2338   001EFE  CFF3 F06E          	movff	prodl,_result
  2339   001F02  CFF4 F06F          	movff	prodh,_result+1
  2340   001F06                     
  2341                           ;application.c: 127:    ret = convert_int_to_string(result , str);
  2342   001F06  C06E  F02B         	movff	_result,convert_int_to_string@value
  2343   001F0A  C06F  F02C         	movff	_result+1,convert_int_to_string@value+1
  2344   001F0E  0E72               	movlw	low _str
  2345   001F10  6E2D               	movwf	convert_int_to_string@str^0,c
  2346   001F12  ECE4  F00F         	call	_convert_int_to_string	;wreg free
  2347   001F16  6E7A               	movwf	_ret^0,c
  2348   001F18                     
  2349                           ;application.c: 128:    ret = lcd_8bit_send_string_pos(&lcd_2,1,11,str);
  2350   001F18  0E52               	movlw	low _lcd_2
  2351   001F1A  6E17               	movwf	lcd_8bit_send_string_pos@lcd^0,c
  2352   001F1C  0E01               	movlw	1
  2353   001F1E  6E18               	movwf	lcd_8bit_send_string_pos@row^0,c
  2354   001F20  0E0B               	movlw	11
  2355   001F22  6E19               	movwf	lcd_8bit_send_string_pos@column^0,c
  2356   001F24  0E72               	movlw	low _str
  2357   001F26  6E1A               	movwf	lcd_8bit_send_string_pos@str^0,c
  2358   001F28  EC68  F010         	call	_lcd_8bit_send_string_pos	;wreg free
  2359   001F2C  6E7A               	movwf	_ret^0,c
  2360   001F2E  0012               	return		;funcret
  2361   001F30                     __end_of_Mult_operation:
  2362                           	callstack 0
  2363                           
  2364 ;; *************** function _Div_operation *****************
  2365 ;; Defined at:
  2366 ;;		line 131 in file "application.c"
  2367 ;; Parameters:    Size  Location     Type
  2368 ;;		None
  2369 ;; Auto vars:     Size  Location     Type
  2370 ;;  num2            1   48[COMRAM] unsigned char 
  2371 ;;  num1            1   47[COMRAM] unsigned char 
  2372 ;; Return value:  Size  Location     Type
  2373 ;;                  1    wreg      void 
  2374 ;; Registers used:
  2375 ;;		wreg, fsr1l, fsr1h, fsr2l, fsr2h, status,2, status,0, tblptrl, tblptrh, tblptru, prodl, prodh, cstack
  2376 ;; Tracked objects:
  2377 ;;		On entry : 0/0
  2378 ;;		On exit  : 0/0
  2379 ;;		Unchanged: 0/0
  2380 ;; Data sizes:     COMRAM   BANK0   BANK1   BANK2   BANK3   BANK4   BANK5   BANK6   BANK7   BANK8   BANK9  BANK10  BANK1
      +1  BANK12  BANK13  BANK14  BANK15
  2381 ;;      Params:         0       0       0       0       0       0       0       0       0       0       0       0       
      +0       0       0       0       0
  2382 ;;      Locals:         2       0       0       0       0       0       0       0       0       0       0       0       
      +0       0       0       0       0
  2383 ;;      Temps:          1       0       0       0       0       0       0       0       0       0       0       0       
      +0       0       0       0       0
  2384 ;;      Totals:         3       0       0       0       0       0       0       0       0       0       0       0       
      +0       0       0       0       0
  2385 ;;Total ram usage:        3 bytes
  2386 ;; Hardware stack levels used: 1
  2387 ;; Hardware stack levels required when called: 6
  2388 ;; This function calls:
  2389 ;;		___lbdiv
  2390 ;;		_convert_int_to_string
  2391 ;;		_lcd_8bit_send_string_pos
  2392 ;; This function is called by:
  2393 ;;		_main
  2394 ;; This function uses a non-reentrant model
  2395 ;;
  2396                           
  2397                           	psect	text11
  2398   001E40                     __ptext11:
  2399                           	callstack 0
  2400   001E40                     _Div_operation:
  2401                           	callstack 24
  2402   001E40                     
  2403                           ;application.c: 132:     uint8 num1,num2;;application.c: 133:     num1= (num1_digit2-48)
      +                          +10*(num1_digit1-48);
  2404   001E40  507B               	movf	_num1_digit1^0,w,c
  2405   001E42  0D0A               	mullw	10
  2406   001E44  50F3               	movf	243,w,c
  2407   001E46  2478               	addwf	_num1_digit2^0,w,c
  2408   001E48  0FF0               	addlw	240
  2409   001E4A  6E30               	movwf	Div_operation@num1^0,c
  2410                           
  2411                           ;application.c: 134:     num2 = (num2_digit2-48)+10*(num2_digit1-48);
  2412   001E4C  5079               	movf	_num2_digit1^0,w,c
  2413   001E4E  0D0A               	mullw	10
  2414   001E50  50F3               	movf	243,w,c
  2415   001E52  2477               	addwf	_num2_digit2^0,w,c
  2416   001E54  0FF0               	addlw	240
  2417   001E56  6E31               	movwf	Div_operation@num2^0,c
  2418   001E58                     
  2419                           ;application.c: 135:     result = num1 / num2;
  2420   001E58  C031  F001         	movff	Div_operation@num2,___lbdiv@divisor
  2421   001E5C  5030               	movf	Div_operation@num1^0,w,c
  2422   001E5E  ECF2  F00E         	call	___lbdiv
  2423   001E62  6E2F               	movwf	??_Div_operation^0,c
  2424   001E64  502F               	movf	??_Div_operation^0,w,c
  2425   001E66  6E6E               	movwf	_result^0,c
  2426   001E68  6A6F               	clrf	(_result+1)^0,c
  2427   001E6A                     
  2428                           ;application.c: 136:    ret = convert_int_to_string(result , str);
  2429   001E6A  C06E  F02B         	movff	_result,convert_int_to_string@value
  2430   001E6E  C06F  F02C         	movff	_result+1,convert_int_to_string@value+1
  2431   001E72  0E72               	movlw	low _str
  2432   001E74  6E2D               	movwf	convert_int_to_string@str^0,c
  2433   001E76  ECE4  F00F         	call	_convert_int_to_string	;wreg free
  2434   001E7A  6E7A               	movwf	_ret^0,c
  2435   001E7C                     
  2436                           ;application.c: 137:    ret = lcd_8bit_send_string_pos(&lcd_2,1,11,str);
  2437   001E7C  0E52               	movlw	low _lcd_2
  2438   001E7E  6E17               	movwf	lcd_8bit_send_string_pos@lcd^0,c
  2439   001E80  0E01               	movlw	1
  2440   001E82  6E18               	movwf	lcd_8bit_send_string_pos@row^0,c
  2441   001E84  0E0B               	movlw	11
  2442   001E86  6E19               	movwf	lcd_8bit_send_string_pos@column^0,c
  2443   001E88  0E72               	movlw	low _str
  2444   001E8A  6E1A               	movwf	lcd_8bit_send_string_pos@str^0,c
  2445   001E8C  EC68  F010         	call	_lcd_8bit_send_string_pos	;wreg free
  2446   001E90  6E7A               	movwf	_ret^0,c
  2447   001E92  0012               	return		;funcret
  2448   001E94                     __end_of_Div_operation:
  2449                           	callstack 0
  2450                           
  2451 ;; *************** function ___lbdiv *****************
  2452 ;; Defined at:
  2453 ;;		line 4 in file "C:\Program Files\Microchip\xc8\v2.45\pic\sources\c99\common\lbdiv.c"
  2454 ;; Parameters:    Size  Location     Type
  2455 ;;  dividend        1    wreg     unsigned char 
  2456 ;;  divisor         1    0[COMRAM] unsigned char 
  2457 ;; Auto vars:     Size  Location     Type
  2458 ;;  dividend        1    1[COMRAM] unsigned char 
  2459 ;;  quotient        1    3[COMRAM] unsigned char 
  2460 ;;  counter         1    2[COMRAM] unsigned char 
  2461 ;; Return value:  Size  Location     Type
  2462 ;;                  1    wreg      unsigned char 
  2463 ;; Registers used:
  2464 ;;		wreg, status,2, status,0
  2465 ;; Tracked objects:
  2466 ;;		On entry : 0/0
  2467 ;;		On exit  : 0/0
  2468 ;;		Unchanged: 0/0
  2469 ;; Data sizes:     COMRAM   BANK0   BANK1   BANK2   BANK3   BANK4   BANK5   BANK6   BANK7   BANK8   BANK9  BANK10  BANK1
      +1  BANK12  BANK13  BANK14  BANK15
  2470 ;;      Params:         1       0       0       0       0       0       0       0       0       0       0       0       
      +0       0       0       0       0
  2471 ;;      Locals:         3       0       0       0       0       0       0       0       0       0       0       0       
      +0       0       0       0       0
  2472 ;;      Temps:          0       0       0       0       0       0       0       0       0       0       0       0       
      +0       0       0       0       0
  2473 ;;      Totals:         4       0       0       0       0       0       0       0       0       0       0       0       
      +0       0       0       0       0
  2474 ;;Total ram usage:        4 bytes
  2475 ;; Hardware stack levels used: 1
  2476 ;; This function calls:
  2477 ;;		Nothing
  2478 ;; This function is called by:
  2479 ;;		_Div_operation
  2480 ;; This function uses a non-reentrant model
  2481 ;;
  2482                           
  2483                           	psect	text12
  2484   001DE4                     __ptext12:
  2485                           	callstack 0
  2486   001DE4                     ___lbdiv:
  2487                           	callstack 29
  2488                           
  2489                           ;incstack = 0
  2490                           ;___lbdiv@dividend stored from wreg
  2491   001DE4  6E02               	movwf	___lbdiv@dividend^0,c
  2492   001DE6  0E00               	movlw	0
  2493   001DE8  6E04               	movwf	___lbdiv@quotient^0,c
  2494   001DEA  5001               	movf	___lbdiv@divisor^0,w,c
  2495   001DEC  B4D8               	btfsc	status,2,c
  2496   001DEE  EFFB  F00E         	goto	u1721
  2497   001DF2  EFFD  F00E         	goto	u1720
  2498   001DF6                     u1721:
  2499   001DF6  EF1E  F00F         	goto	l2725
  2500   001DFA                     u1720:
  2501   001DFA  0E01               	movlw	1
  2502   001DFC  6E03               	movwf	___lbdiv@counter^0,c
  2503   001DFE  EF04  F00F         	goto	l2713
  2504   001E02                     l2709:
  2505   001E02  90D8               	bcf	status,0,c
  2506   001E04  3601               	rlcf	___lbdiv@divisor^0,f,c
  2507   001E06  2A03               	incf	___lbdiv@counter^0,f,c
  2508   001E08                     l2713:
  2509   001E08  AE01               	btfss	___lbdiv@divisor^0,7,c
  2510   001E0A  EF09  F00F         	goto	u1731
  2511   001E0E  EF0B  F00F         	goto	u1730
  2512   001E12                     u1731:
  2513   001E12  EF01  F00F         	goto	l2709
  2514   001E16                     u1730:
  2515   001E16                     l2715:
  2516   001E16  90D8               	bcf	status,0,c
  2517   001E18  3604               	rlcf	___lbdiv@quotient^0,f,c
  2518   001E1A  5001               	movf	___lbdiv@divisor^0,w,c
  2519   001E1C  5C02               	subwf	___lbdiv@dividend^0,w,c
  2520   001E1E  A0D8               	btfss	status,0,c
  2521   001E20  EF14  F00F         	goto	u1741
  2522   001E24  EF16  F00F         	goto	u1740
  2523   001E28                     u1741:
  2524   001E28  EF19  F00F         	goto	l2721
  2525   001E2C                     u1740:
  2526   001E2C  5001               	movf	___lbdiv@divisor^0,w,c
  2527   001E2E  5E02               	subwf	___lbdiv@dividend^0,f,c
  2528   001E30  8004               	bsf	___lbdiv@quotient^0,0,c
  2529   001E32                     l2721:
  2530   001E32  90D8               	bcf	status,0,c
  2531   001E34  3201               	rrcf	___lbdiv@divisor^0,f,c
  2532   001E36  2E03               	decfsz	___lbdiv@counter^0,f,c
  2533   001E38  EF0B  F00F         	goto	l2715
  2534   001E3C                     l2725:
  2535   001E3C  5004               	movf	___lbdiv@quotient^0,w,c
  2536   001E3E  0012               	return		;funcret
  2537   001E40                     __end_of___lbdiv:
  2538                           	callstack 0
  2539                           
  2540 ;; *************** function _Add_operation *****************
  2541 ;; Defined at:
  2542 ;;		line 104 in file "application.c"
  2543 ;; Parameters:    Size  Location     Type
  2544 ;;		None
  2545 ;; Auto vars:     Size  Location     Type
  2546 ;;  num2            1   47[COMRAM] unsigned char 
  2547 ;;  num1            1   46[COMRAM] unsigned char 
  2548 ;; Return value:  Size  Location     Type
  2549 ;;                  1    wreg      void 
  2550 ;; Registers used:
  2551 ;;		wreg, fsr1l, fsr1h, fsr2l, fsr2h, status,2, status,0, tblptrl, tblptrh, tblptru, prodl, prodh, cstack
  2552 ;; Tracked objects:
  2553 ;;		On entry : 0/0
  2554 ;;		On exit  : 0/0
  2555 ;;		Unchanged: 0/0
  2556 ;; Data sizes:     COMRAM   BANK0   BANK1   BANK2   BANK3   BANK4   BANK5   BANK6   BANK7   BANK8   BANK9  BANK10  BANK1
      +1  BANK12  BANK13  BANK14  BANK15
  2557 ;;      Params:         0       0       0       0       0       0       0       0       0       0       0       0       
      +0       0       0       0       0
  2558 ;;      Locals:         2       0       0       0       0       0       0       0       0       0       0       0       
      +0       0       0       0       0
  2559 ;;      Temps:          0       0       0       0       0       0       0       0       0       0       0       0       
      +0       0       0       0       0
  2560 ;;      Totals:         2       0       0       0       0       0       0       0       0       0       0       0       
      +0       0       0       0       0
  2561 ;;Total ram usage:        2 bytes
  2562 ;; Hardware stack levels used: 1
  2563 ;; Hardware stack levels required when called: 6
  2564 ;; This function calls:
  2565 ;;		_convert_int_to_string
  2566 ;;		_lcd_8bit_send_string_pos
  2567 ;; This function is called by:
  2568 ;;		_main
  2569 ;; This function uses a non-reentrant model
  2570 ;;
  2571                           
  2572                           	psect	text13
  2573   001F30                     __ptext13:
  2574                           	callstack 0
  2575   001F30                     _Add_operation:
  2576                           	callstack 24
  2577   001F30                     
  2578                           ;application.c: 105:     uint8 num1,num2;;application.c: 106:     num1= (num1_digit2-48)
      +                          +10*(num1_digit1-48);
  2579   001F30  507B               	movf	_num1_digit1^0,w,c
  2580   001F32  0D0A               	mullw	10
  2581   001F34  50F3               	movf	243,w,c
  2582   001F36  2478               	addwf	_num1_digit2^0,w,c
  2583   001F38  0FF0               	addlw	240
  2584   001F3A  6E2F               	movwf	Add_operation@num1^0,c
  2585                           
  2586                           ;application.c: 107:     num2 = (num2_digit2-48)+10*(num2_digit1-48);
  2587   001F3C  5079               	movf	_num2_digit1^0,w,c
  2588   001F3E  0D0A               	mullw	10
  2589   001F40  50F3               	movf	243,w,c
  2590   001F42  2477               	addwf	_num2_digit2^0,w,c
  2591   001F44  0FF0               	addlw	240
  2592   001F46  6E30               	movwf	Add_operation@num2^0,c
  2593   001F48                     
  2594                           ;application.c: 108:    result = num1 + num2;
  2595   001F48  502F               	movf	Add_operation@num1^0,w,c
  2596   001F4A  2430               	addwf	Add_operation@num2^0,w,c
  2597   001F4C  6E6E               	movwf	_result^0,c
  2598   001F4E  6A6F               	clrf	(_result+1)^0,c
  2599   001F50  366F               	rlcf	(_result+1)^0,f,c
  2600   001F52                     
  2601                           ;application.c: 109:    ret = convert_int_to_string(result , str);
  2602   001F52  C06E  F02B         	movff	_result,convert_int_to_string@value
  2603   001F56  C06F  F02C         	movff	_result+1,convert_int_to_string@value+1
  2604   001F5A  0E72               	movlw	low _str
  2605   001F5C  6E2D               	movwf	convert_int_to_string@str^0,c
  2606   001F5E  ECE4  F00F         	call	_convert_int_to_string	;wreg free
  2607   001F62  6E7A               	movwf	_ret^0,c
  2608   001F64                     
  2609                           ;application.c: 110:    ret = lcd_8bit_send_string_pos(&lcd_2,1,11,str);
  2610   001F64  0E52               	movlw	low _lcd_2
  2611   001F66  6E17               	movwf	lcd_8bit_send_string_pos@lcd^0,c
  2612   001F68  0E01               	movlw	1
  2613   001F6A  6E18               	movwf	lcd_8bit_send_string_pos@row^0,c
  2614   001F6C  0E0B               	movlw	11
  2615   001F6E  6E19               	movwf	lcd_8bit_send_string_pos@column^0,c
  2616   001F70  0E72               	movlw	low _str
  2617   001F72  6E1A               	movwf	lcd_8bit_send_string_pos@str^0,c
  2618   001F74  EC68  F010         	call	_lcd_8bit_send_string_pos	;wreg free
  2619   001F78  6E7A               	movwf	_ret^0,c
  2620   001F7A  0012               	return		;funcret
  2621   001F7C                     __end_of_Add_operation:
  2622                           	callstack 0
  2623                           
  2624 ;; *************** function _lcd_8bit_send_string_pos *****************
  2625 ;; Defined at:
  2626 ;;		line 220 in file "ECU_layer/LCD/ecu_lcd.c"
  2627 ;; Parameters:    Size  Location     Type
  2628 ;;  lcd             1   22[COMRAM] PTR const struct .
  2629 ;;		 -> lcd_2(10), 
  2630 ;;  row             1   23[COMRAM] unsigned char 
  2631 ;;  column          1   24[COMRAM] unsigned char 
  2632 ;;  str             1   25[COMRAM] PTR unsigned char 
  2633 ;;		 -> str(2), 
  2634 ;; Auto vars:     Size  Location     Type
  2635 ;;  ret             1   26[COMRAM] unsigned char 
  2636 ;; Return value:  Size  Location     Type
  2637 ;;                  1    wreg      unsigned char 
  2638 ;; Registers used:
  2639 ;;		wreg, fsr2l, fsr2h, status,2, status,0, prodl, prodh, cstack
  2640 ;; Tracked objects:
  2641 ;;		On entry : 0/0
  2642 ;;		On exit  : 0/0
  2643 ;;		Unchanged: 0/0
  2644 ;; Data sizes:     COMRAM   BANK0   BANK1   BANK2   BANK3   BANK4   BANK5   BANK6   BANK7   BANK8   BANK9  BANK10  BANK1
      +1  BANK12  BANK13  BANK14  BANK15
  2645 ;;      Params:         4       0       0       0       0       0       0       0       0       0       0       0       
      +0       0       0       0       0
  2646 ;;      Locals:         1       0       0       0       0       0       0       0       0       0       0       0       
      +0       0       0       0       0
  2647 ;;      Temps:          0       0       0       0       0       0       0       0       0       0       0       0       
      +0       0       0       0       0
  2648 ;;      Totals:         5       0       0       0       0       0       0       0       0       0       0       0       
      +0       0       0       0       0
  2649 ;;Total ram usage:        5 bytes
  2650 ;; Hardware stack levels used: 1
  2651 ;; Hardware stack levels required when called: 4
  2652 ;; This function calls:
  2653 ;;		_lcd_8bit_send_string
  2654 ;;		_lcd_8bits_set_cursor
  2655 ;; This function is called by:
  2656 ;;		_Add_operation
  2657 ;;		_Sub_operation
  2658 ;;		_Mult_operation
  2659 ;;		_Div_operation
  2660 ;; This function uses a non-reentrant model
  2661 ;;
  2662                           
  2663                           	psect	text14
  2664   0020D0                     __ptext14:
  2665                           	callstack 0
  2666   0020D0                     _lcd_8bit_send_string_pos:
  2667                           	callstack 25
  2668   0020D0                     
  2669                           ;ECU_layer/LCD/ecu_lcd.c: 222:        if(((void*)0)==lcd){
  2670   0020D0  5017               	movf	lcd_8bit_send_string_pos@lcd^0,w,c
  2671   0020D2  A4D8               	btfss	status,2,c
  2672   0020D4  EF6E  F010         	goto	u1701
  2673   0020D8  EF70  F010         	goto	u1700
  2674   0020DC                     u1701:
  2675   0020DC  EF74  F010         	goto	l2685
  2676   0020E0                     u1700:
  2677   0020E0                     
  2678                           ;ECU_layer/LCD/ecu_lcd.c: 223:            ret = (std_returntype)0x00 ;
  2679   0020E0  0E00               	movlw	0
  2680   0020E2  6E1B               	movwf	lcd_8bit_send_string_pos@ret^0,c
  2681                           
  2682                           ;ECU_layer/LCD/ecu_lcd.c: 224:        }
  2683   0020E4  EF84  F010         	goto	l2687
  2684   0020E8                     l2685:
  2685                           
  2686                           ;ECU_layer/LCD/ecu_lcd.c: 226:         {;ECU_layer/LCD/ecu_lcd.c: 227:            ret = 
      +                          lcd_8bits_set_cursor(lcd , row , column);
  2687   0020E8  C017  F011         	movff	lcd_8bit_send_string_pos@lcd,lcd_8bits_set_cursor@lcd
  2688   0020EC  C018  F012         	movff	lcd_8bit_send_string_pos@row,lcd_8bits_set_cursor@row
  2689   0020F0  C019  F013         	movff	lcd_8bit_send_string_pos@column,lcd_8bits_set_cursor@column
  2690   0020F4  EC77  F00D         	call	_lcd_8bits_set_cursor	;wreg free
  2691   0020F8  6E1B               	movwf	lcd_8bit_send_string_pos@ret^0,c
  2692                           
  2693                           ;ECU_layer/LCD/ecu_lcd.c: 229:                ret = lcd_8bit_send_string(lcd , str);
  2694   0020FA  C017  F011         	movff	lcd_8bit_send_string_pos@lcd,lcd_8bit_send_string@lcd
  2695   0020FE  C01A  F012         	movff	lcd_8bit_send_string_pos@str,lcd_8bit_send_string@str
  2696   002102  ECBE  F00F         	call	_lcd_8bit_send_string	;wreg free
  2697   002106  6E1B               	movwf	lcd_8bit_send_string_pos@ret^0,c
  2698   002108                     l2687:
  2699                           
  2700                           ;ECU_layer/LCD/ecu_lcd.c: 231:      return ret;
  2701   002108  501B               	movf	lcd_8bit_send_string_pos@ret^0,w,c
  2702   00210A  0012               	return		;funcret
  2703   00210C                     __end_of_lcd_8bit_send_string_pos:
  2704                           	callstack 0
  2705                           
  2706 ;; *************** function _lcd_8bits_set_cursor *****************
  2707 ;; Defined at:
  2708 ;;		line 319 in file "ECU_layer/LCD/ecu_lcd.c"
  2709 ;; Parameters:    Size  Location     Type
  2710 ;;  lcd             1   16[COMRAM] PTR const struct .
  2711 ;;		 -> lcd_2(10), 
  2712 ;;  row             1   17[COMRAM] unsigned char 
  2713 ;;  column          1   18[COMRAM] unsigned char 
  2714 ;; Auto vars:     Size  Location     Type
  2715 ;;  ret             1   21[COMRAM] unsigned char 
  2716 ;; Return value:  Size  Location     Type
  2717 ;;                  1    wreg      unsigned char 
  2718 ;; Registers used:
  2719 ;;		wreg, fsr2l, fsr2h, status,2, status,0, prodl, prodh, cstack
  2720 ;; Tracked objects:
  2721 ;;		On entry : 0/0
  2722 ;;		On exit  : 0/0
  2723 ;;		Unchanged: 0/0
  2724 ;; Data sizes:     COMRAM   BANK0   BANK1   BANK2   BANK3   BANK4   BANK5   BANK6   BANK7   BANK8   BANK9  BANK10  BANK1
      +1  BANK12  BANK13  BANK14  BANK15
  2725 ;;      Params:         3       0       0       0       0       0       0       0       0       0       0       0       
      +0       0       0       0       0
  2726 ;;      Locals:         1       0       0       0       0       0       0       0       0       0       0       0       
      +0       0       0       0       0
  2727 ;;      Temps:          2       0       0       0       0       0       0       0       0       0       0       0       
      +0       0       0       0       0
  2728 ;;      Totals:         6       0       0       0       0       0       0       0       0       0       0       0       
      +0       0       0       0       0
  2729 ;;Total ram usage:        6 bytes
  2730 ;; Hardware stack levels used: 1
  2731 ;; Hardware stack levels required when called: 3
  2732 ;; This function calls:
  2733 ;;		_lcd_8bit_send_command
  2734 ;; This function is called by:
  2735 ;;		_lcd_8bit_send_char_data_pos
  2736 ;;		_lcd_8bit_send_string_pos
  2737 ;; This function uses a non-reentrant model
  2738 ;;
  2739                           
  2740                           	psect	text15
  2741   001AEE                     __ptext15:
  2742                           	callstack 0
  2743   001AEE                     _lcd_8bits_set_cursor:
  2744                           	callstack 26
  2745   001AEE                     
  2746                           ;ECU_layer/LCD/ecu_lcd.c: 320:     std_returntype ret = (std_returntype)0x01;
  2747   001AEE  0E01               	movlw	1
  2748   001AF0  6E16               	movwf	lcd_8bits_set_cursor@ret^0,c
  2749   001AF2                     
  2750                           ;ECU_layer/LCD/ecu_lcd.c: 321:     column--;
  2751   001AF2  0613               	decf	lcd_8bits_set_cursor@column^0,f,c
  2752                           
  2753                           ;ECU_layer/LCD/ecu_lcd.c: 322:     switch(row){
  2754   001AF4  EFAC  F00D         	goto	l2517
  2755   001AF8                     l2509:
  2756   001AF8  C011  F00B         	movff	lcd_8bits_set_cursor@lcd,lcd_8bit_send_command@lcd
  2757   001AFC  5013               	movf	lcd_8bits_set_cursor@column^0,w,c
  2758   001AFE  0F80               	addlw	128
  2759   001B00  6E0C               	movwf	lcd_8bit_send_command@command^0,c
  2760   001B02  EC1D  F00E         	call	_lcd_8bit_send_command	;wreg free
  2761   001B06  6E16               	movwf	lcd_8bits_set_cursor@ret^0,c
  2762   001B08  C016  F016         	movff	lcd_8bits_set_cursor@ret,lcd_8bits_set_cursor@ret
  2763   001B0C  EFC9  F00D         	goto	l2519
  2764   001B10                     l2511:
  2765   001B10  C011  F00B         	movff	lcd_8bits_set_cursor@lcd,lcd_8bit_send_command@lcd
  2766   001B14  5013               	movf	lcd_8bits_set_cursor@column^0,w,c
  2767   001B16  0FC0               	addlw	192
  2768   001B18  6E0C               	movwf	lcd_8bit_send_command@command^0,c
  2769   001B1A  EC1D  F00E         	call	_lcd_8bit_send_command	;wreg free
  2770   001B1E  6E16               	movwf	lcd_8bits_set_cursor@ret^0,c
  2771   001B20  C016  F016         	movff	lcd_8bits_set_cursor@ret,lcd_8bits_set_cursor@ret
  2772   001B24  EFC9  F00D         	goto	l2519
  2773   001B28                     l2513:
  2774   001B28  C011  F00B         	movff	lcd_8bits_set_cursor@lcd,lcd_8bit_send_command@lcd
  2775   001B2C  5013               	movf	lcd_8bits_set_cursor@column^0,w,c
  2776   001B2E  0F94               	addlw	148
  2777   001B30  6E0C               	movwf	lcd_8bit_send_command@command^0,c
  2778   001B32  EC1D  F00E         	call	_lcd_8bit_send_command	;wreg free
  2779   001B36  6E16               	movwf	lcd_8bits_set_cursor@ret^0,c
  2780   001B38  C016  F016         	movff	lcd_8bits_set_cursor@ret,lcd_8bits_set_cursor@ret
  2781   001B3C  EFC9  F00D         	goto	l2519
  2782   001B40                     l2515:
  2783   001B40  C011  F00B         	movff	lcd_8bits_set_cursor@lcd,lcd_8bit_send_command@lcd
  2784   001B44  5013               	movf	lcd_8bits_set_cursor@column^0,w,c
  2785   001B46  0FD4               	addlw	212
  2786   001B48  6E0C               	movwf	lcd_8bit_send_command@command^0,c
  2787   001B4A  EC1D  F00E         	call	_lcd_8bit_send_command	;wreg free
  2788   001B4E  6E16               	movwf	lcd_8bits_set_cursor@ret^0,c
  2789   001B50  C016  F016         	movff	lcd_8bits_set_cursor@ret,lcd_8bits_set_cursor@ret
  2790   001B54  EFC9  F00D         	goto	l2519
  2791   001B58                     l2517:
  2792   001B58  5012               	movf	lcd_8bits_set_cursor@row^0,w,c
  2793   001B5A  6E14               	movwf	??_lcd_8bits_set_cursor^0,c
  2794   001B5C  6A15               	clrf	(??_lcd_8bits_set_cursor+1)^0,c
  2795                           
  2796                           ; Switch on 2 bytes has been partitioned into a top level switch of size 1, and 1 sub-sw
      +                          itches
  2797                           ; Switch size 1, requested type "simple"
  2798                           ; Number of cases is 1, Range of values is 0 to 0
  2799                           ; switch strategies available:
  2800                           ; Name         Instructions Cycles
  2801                           ; simple_byte            4     3 (average)
  2802                           ;	Chosen strategy is simple_byte
  2803   001B5E  5015               	movf	(??_lcd_8bits_set_cursor+1)^0,w,c
  2804   001B60  0A00               	xorlw	0	; case 0
  2805   001B62  B4D8               	btfsc	status,2,c
  2806   001B64  EFB6  F00D         	goto	l3141
  2807   001B68  EFC9  F00D         	goto	l2519
  2808   001B6C                     l3141:
  2809                           
  2810                           ; Switch size 1, requested type "simple"
  2811                           ; Number of cases is 4, Range of values is 1 to 4
  2812                           ; switch strategies available:
  2813                           ; Name         Instructions Cycles
  2814                           ; simple_byte           13     7 (average)
  2815                           ;	Chosen strategy is simple_byte
  2816   001B6C  5014               	movf	??_lcd_8bits_set_cursor^0,w,c
  2817   001B6E  0A01               	xorlw	1	; case 1
  2818   001B70  B4D8               	btfsc	status,2,c
  2819   001B72  EF7C  F00D         	goto	l2509
  2820   001B76  0A03               	xorlw	3	; case 2
  2821   001B78  B4D8               	btfsc	status,2,c
  2822   001B7A  EF88  F00D         	goto	l2511
  2823   001B7E  0A01               	xorlw	1	; case 3
  2824   001B80  B4D8               	btfsc	status,2,c
  2825   001B82  EF94  F00D         	goto	l2513
  2826   001B86  0A07               	xorlw	7	; case 4
  2827   001B88  B4D8               	btfsc	status,2,c
  2828   001B8A  EFA0  F00D         	goto	l2515
  2829   001B8E  EFC9  F00D         	goto	l2519
  2830   001B92                     l2519:
  2831                           
  2832                           ;ECU_layer/LCD/ecu_lcd.c: 329:     return ret;
  2833   001B92  5016               	movf	lcd_8bits_set_cursor@ret^0,w,c
  2834   001B94  0012               	return		;funcret
  2835   001B96                     __end_of_lcd_8bits_set_cursor:
  2836                           	callstack 0
  2837                           
  2838 ;; *************** function _lcd_8bit_send_command *****************
  2839 ;; Defined at:
  2840 ;;		line 157 in file "ECU_layer/LCD/ecu_lcd.c"
  2841 ;; Parameters:    Size  Location     Type
  2842 ;;  lcd             1   10[COMRAM] PTR const struct .
  2843 ;;		 -> lcd_2(10), 
  2844 ;;  command         1   11[COMRAM] unsigned char 
  2845 ;; Auto vars:     Size  Location     Type
  2846 ;;  l_pin_counte    1   15[COMRAM] unsigned char 
  2847 ;;  ret             1   14[COMRAM] unsigned char 
  2848 ;; Return value:  Size  Location     Type
  2849 ;;                  1    wreg      unsigned char 
  2850 ;; Registers used:
  2851 ;;		wreg, fsr2l, fsr2h, status,2, status,0, prodl, prodh, cstack
  2852 ;; Tracked objects:
  2853 ;;		On entry : 0/0
  2854 ;;		On exit  : 0/0
  2855 ;;		Unchanged: 0/0
  2856 ;; Data sizes:     COMRAM   BANK0   BANK1   BANK2   BANK3   BANK4   BANK5   BANK6   BANK7   BANK8   BANK9  BANK10  BANK1
      +1  BANK12  BANK13  BANK14  BANK15
  2857 ;;      Params:         2       0       0       0       0       0       0       0       0       0       0       0       
      +0       0       0       0       0
  2858 ;;      Locals:         2       0       0       0       0       0       0       0       0       0       0       0       
      +0       0       0       0       0
  2859 ;;      Temps:          2       0       0       0       0       0       0       0       0       0       0       0       
      +0       0       0       0       0
  2860 ;;      Totals:         6       0       0       0       0       0       0       0       0       0       0       0       
      +0       0       0       0       0
  2861 ;;Total ram usage:        6 bytes
  2862 ;; Hardware stack levels used: 1
  2863 ;; Hardware stack levels required when called: 2
  2864 ;; This function calls:
  2865 ;;		_gpio_pin_write_logic
  2866 ;;		_lcd_8bits_sned_enable_signal
  2867 ;; This function is called by:
  2868 ;;		_lcd_8bit_initialize
  2869 ;;		_lcd_8bits_set_cursor
  2870 ;;		_main
  2871 ;;		_lcd_4bit_initialize
  2872 ;;		_lcd_8bit_send_custome_char
  2873 ;; This function uses a non-reentrant model
  2874 ;;
  2875                           
  2876                           	psect	text16
  2877   001C3A                     __ptext16:
  2878                           	callstack 0
  2879   001C3A                     _lcd_8bit_send_command:
  2880                           	callstack 28
  2881   001C3A                     
  2882                           ;ECU_layer/LCD/ecu_lcd.c: 159:     uint8 l_pin_counter = 0;
  2883   001C3A  0E00               	movlw	0
  2884   001C3C  6E10               	movwf	lcd_8bit_send_command@l_pin_counter^0,c
  2885                           
  2886                           ;ECU_layer/LCD/ecu_lcd.c: 160:     if(((void*)0) == lcd){
  2887   001C3E  500B               	movf	lcd_8bit_send_command@lcd^0,w,c
  2888   001C40  A4D8               	btfss	status,2,c
  2889   001C42  EF25  F00E         	goto	u1481
  2890   001C46  EF27  F00E         	goto	u1480
  2891   001C4A                     u1481:
  2892   001C4A  EF2B  F00E         	goto	l2439
  2893   001C4E                     u1480:
  2894   001C4E                     
  2895                           ;ECU_layer/LCD/ecu_lcd.c: 161:         ret = (std_returntype)0x00;
  2896   001C4E  0E00               	movlw	0
  2897   001C50  6E0F               	movwf	lcd_8bit_send_command@ret^0,c
  2898                           
  2899                           ;ECU_layer/LCD/ecu_lcd.c: 162:     }
  2900   001C52  EF56  F00E         	goto	l2455
  2901   001C56                     l2439:
  2902   001C56  C00B  F001         	movff	lcd_8bit_send_command@lcd,gpio_pin_write_logic@_pin_config
  2903   001C5A  0E00               	movlw	0
  2904   001C5C  6E02               	movwf	gpio_pin_write_logic@logic^0,c
  2905   001C5E  ECFB  F00A         	call	_gpio_pin_write_logic	;wreg free
  2906   001C62                     
  2907                           ;ECU_layer/LCD/ecu_lcd.c: 168:         for(l_pin_counter=0; l_pin_counter<8; ++l_pin_cou
      +                          nter){
  2908   001C62  0E00               	movlw	0
  2909   001C64  6E10               	movwf	lcd_8bit_send_command@l_pin_counter^0,c
  2910   001C66                     l2447:
  2911   001C66  500B               	movf	lcd_8bit_send_command@lcd^0,w,c
  2912   001C68  2410               	addwf	lcd_8bit_send_command@l_pin_counter^0,w,c
  2913   001C6A  0F02               	addlw	2
  2914   001C6C  6E01               	movwf	gpio_pin_write_logic@_pin_config^0,c
  2915   001C6E  C010  F00D         	movff	lcd_8bit_send_command@l_pin_counter,??_lcd_8bit_send_command
  2916   001C72  C00C  F00E         	movff	lcd_8bit_send_command@command,??_lcd_8bit_send_command+1
  2917   001C76  2A0D               	incf	??_lcd_8bit_send_command^0,f,c
  2918   001C78  EF40  F00E         	goto	u1494
  2919   001C7C                     u1495:
  2920   001C7C  90D8               	bcf	status,0,c
  2921   001C7E  320E               	rrcf	(??_lcd_8bit_send_command+1)^0,f,c
  2922   001C80                     u1494:
  2923   001C80  2E0D               	decfsz	??_lcd_8bit_send_command^0,f,c
  2924   001C82  EF3E  F00E         	goto	u1495
  2925   001C86  500E               	movf	(??_lcd_8bit_send_command+1)^0,w,c
  2926   001C88  0B01               	andlw	1
  2927   001C8A  6E02               	movwf	gpio_pin_write_logic@logic^0,c
  2928   001C8C  ECFB  F00A         	call	_gpio_pin_write_logic	;wreg free
  2929   001C90                     
  2930                           ;ECU_layer/LCD/ecu_lcd.c: 170:         }
  2931   001C90  2A10               	incf	lcd_8bit_send_command@l_pin_counter^0,f,c
  2932   001C92  0E07               	movlw	7
  2933   001C94  6410               	cpfsgt	lcd_8bit_send_command@l_pin_counter^0,c
  2934   001C96  EF4F  F00E         	goto	u1501
  2935   001C9A  EF51  F00E         	goto	u1500
  2936   001C9E                     u1501:
  2937   001C9E  EF33  F00E         	goto	l2447
  2938   001CA2                     u1500:
  2939   001CA2                     
  2940                           ;ECU_layer/LCD/ecu_lcd.c: 172:         ret = lcd_8bits_sned_enable_signal(lcd);
  2941   001CA2  C00B  F009         	movff	lcd_8bit_send_command@lcd,lcd_8bits_sned_enable_signal@lcd
  2942   001CA6  ECEA  F010         	call	_lcd_8bits_sned_enable_signal	;wreg free
  2943   001CAA  6E0F               	movwf	lcd_8bit_send_command@ret^0,c
  2944   001CAC                     l2455:
  2945                           
  2946                           ;ECU_layer/LCD/ecu_lcd.c: 174:     return ret;
  2947   001CAC  500F               	movf	lcd_8bit_send_command@ret^0,w,c
  2948   001CAE  0012               	return		;funcret
  2949   001CB0                     __end_of_lcd_8bit_send_command:
  2950                           	callstack 0
  2951                           
  2952 ;; *************** function _lcd_8bit_send_string *****************
  2953 ;; Defined at:
  2954 ;;		line 207 in file "ECU_layer/LCD/ecu_lcd.c"
  2955 ;; Parameters:    Size  Location     Type
  2956 ;;  lcd             1   16[COMRAM] PTR const struct .
  2957 ;;		 -> lcd_2(10), 
  2958 ;;  str             1   17[COMRAM] PTR unsigned char 
  2959 ;;		 -> str(2), 
  2960 ;; Auto vars:     Size  Location     Type
  2961 ;;  ret             1   18[COMRAM] unsigned char 
  2962 ;; Return value:  Size  Location     Type
  2963 ;;                  1    wreg      unsigned char 
  2964 ;; Registers used:
  2965 ;;		wreg, fsr2l, fsr2h, status,2, status,0, prodl, prodh, cstack
  2966 ;; Tracked objects:
  2967 ;;		On entry : 0/0
  2968 ;;		On exit  : 0/0
  2969 ;;		Unchanged: 0/0
  2970 ;; Data sizes:     COMRAM   BANK0   BANK1   BANK2   BANK3   BANK4   BANK5   BANK6   BANK7   BANK8   BANK9  BANK10  BANK1
      +1  BANK12  BANK13  BANK14  BANK15
  2971 ;;      Params:         2       0       0       0       0       0       0       0       0       0       0       0       
      +0       0       0       0       0
  2972 ;;      Locals:         1       0       0       0       0       0       0       0       0       0       0       0       
      +0       0       0       0       0
  2973 ;;      Temps:          0       0       0       0       0       0       0       0       0       0       0       0       
      +0       0       0       0       0
  2974 ;;      Totals:         3       0       0       0       0       0       0       0       0       0       0       0       
      +0       0       0       0       0
  2975 ;;Total ram usage:        3 bytes
  2976 ;; Hardware stack levels used: 1
  2977 ;; Hardware stack levels required when called: 3
  2978 ;; This function calls:
  2979 ;;		_lcd_8bit_send_char_data
  2980 ;; This function is called by:
  2981 ;;		_lcd_8bit_send_string_pos
  2982 ;; This function uses a non-reentrant model
  2983 ;;
  2984                           
  2985                           	psect	text17
  2986   001F7C                     __ptext17:
  2987                           	callstack 0
  2988   001F7C                     _lcd_8bit_send_string:
  2989                           	callstack 25
  2990   001F7C                     
  2991                           ;ECU_layer/LCD/ecu_lcd.c: 208:          std_returntype ret = (std_returntype)0x01;
  2992   001F7C  0E01               	movlw	1
  2993   001F7E  6E13               	movwf	lcd_8bit_send_string@ret^0,c
  2994                           
  2995                           ;ECU_layer/LCD/ecu_lcd.c: 209:        if(((void*)0)==lcd){
  2996   001F80  5011               	movf	lcd_8bit_send_string@lcd^0,w,c
  2997   001F82  A4D8               	btfss	status,2,c
  2998   001F84  EFC6  F00F         	goto	u1571
  2999   001F88  EFC8  F00F         	goto	u1570
  3000   001F8C                     u1571:
  3001   001F8C  EFD7  F00F         	goto	l2535
  3002   001F90                     u1570:
  3003   001F90                     
  3004                           ;ECU_layer/LCD/ecu_lcd.c: 210:            ret = (std_returntype)0x00 ;
  3005   001F90  0E00               	movlw	0
  3006   001F92  6E13               	movwf	lcd_8bit_send_string@ret^0,c
  3007                           
  3008                           ;ECU_layer/LCD/ecu_lcd.c: 211:        }
  3009   001F94  EFE2  F00F         	goto	l2537
  3010   001F98                     l2531:
  3011                           
  3012                           ;ECU_layer/LCD/ecu_lcd.c: 215:                ret = lcd_8bit_send_char_data(lcd , *str++
      +                          );
  3013   001F98  C011  F00B         	movff	lcd_8bit_send_string@lcd,lcd_8bit_send_char_data@lcd
  3014   001F9C  5012               	movf	lcd_8bit_send_string@str^0,w,c
  3015   001F9E  6ED9               	movwf	fsr2l,c
  3016   001FA0  6ADA               	clrf	fsr2h,c
  3017   001FA2  50DF               	movf	indf2,w,c
  3018   001FA4  6E0C               	movwf	lcd_8bit_send_char_data@data^0,c
  3019   001FA6  EC58  F00E         	call	_lcd_8bit_send_char_data	;wreg free
  3020   001FAA  6E13               	movwf	lcd_8bit_send_string@ret^0,c
  3021   001FAC  2A12               	incf	lcd_8bit_send_string@str^0,f,c
  3022   001FAE                     l2535:
  3023                           
  3024                           ;ECU_layer/LCD/ecu_lcd.c: 214:            while(*str){
  3025   001FAE  5012               	movf	lcd_8bit_send_string@str^0,w,c
  3026   001FB0  6ED9               	movwf	fsr2l,c
  3027   001FB2  6ADA               	clrf	fsr2h,c
  3028   001FB4  50DF               	movf	indf2,w,c
  3029   001FB6  A4D8               	btfss	status,2,c
  3030   001FB8  EFE0  F00F         	goto	u1581
  3031   001FBC  EFE2  F00F         	goto	u1580
  3032   001FC0                     u1581:
  3033   001FC0  EFCC  F00F         	goto	l2531
  3034   001FC4                     u1580:
  3035   001FC4                     l2537:
  3036                           
  3037                           ;ECU_layer/LCD/ecu_lcd.c: 218:      return ret;
  3038   001FC4  5013               	movf	lcd_8bit_send_string@ret^0,w,c
  3039   001FC6  0012               	return		;funcret
  3040   001FC8                     __end_of_lcd_8bit_send_string:
  3041                           	callstack 0
  3042                           
  3043 ;; *************** function _lcd_8bit_send_char_data *****************
  3044 ;; Defined at:
  3045 ;;		line 176 in file "ECU_layer/LCD/ecu_lcd.c"
  3046 ;; Parameters:    Size  Location     Type
  3047 ;;  lcd             1   10[COMRAM] PTR const struct .
  3048 ;;		 -> lcd_2(10), 
  3049 ;;  data            1   11[COMRAM] unsigned char 
  3050 ;; Auto vars:     Size  Location     Type
  3051 ;;  l_pin_counte    1   15[COMRAM] unsigned char 
  3052 ;;  ret             1   14[COMRAM] unsigned char 
  3053 ;; Return value:  Size  Location     Type
  3054 ;;                  1    wreg      unsigned char 
  3055 ;; Registers used:
  3056 ;;		wreg, fsr2l, fsr2h, status,2, status,0, prodl, prodh, cstack
  3057 ;; Tracked objects:
  3058 ;;		On entry : 0/0
  3059 ;;		On exit  : 0/0
  3060 ;;		Unchanged: 0/0
  3061 ;; Data sizes:     COMRAM   BANK0   BANK1   BANK2   BANK3   BANK4   BANK5   BANK6   BANK7   BANK8   BANK9  BANK10  BANK1
      +1  BANK12  BANK13  BANK14  BANK15
  3062 ;;      Params:         2       0       0       0       0       0       0       0       0       0       0       0       
      +0       0       0       0       0
  3063 ;;      Locals:         2       0       0       0       0       0       0       0       0       0       0       0       
      +0       0       0       0       0
  3064 ;;      Temps:          2       0       0       0       0       0       0       0       0       0       0       0       
      +0       0       0       0       0
  3065 ;;      Totals:         6       0       0       0       0       0       0       0       0       0       0       0       
      +0       0       0       0       0
  3066 ;;Total ram usage:        6 bytes
  3067 ;; Hardware stack levels used: 1
  3068 ;; Hardware stack levels required when called: 2
  3069 ;; This function calls:
  3070 ;;		_gpio_pin_write_logic
  3071 ;;		_lcd_8bits_sned_enable_signal
  3072 ;; This function is called by:
  3073 ;;		_lcd_8bit_send_char_data_pos
  3074 ;;		_lcd_8bit_send_string
  3075 ;;		_lcd_8bit_send_custome_char
  3076 ;; This function uses a non-reentrant model
  3077 ;;
  3078                           
  3079                           	psect	text18
  3080   001CB0                     __ptext18:
  3081                           	callstack 0
  3082   001CB0                     _lcd_8bit_send_char_data:
  3083                           	callstack 27
  3084   001CB0                     
  3085                           ;ECU_layer/LCD/ecu_lcd.c: 178:     uint8 l_pin_counter = 0;
  3086   001CB0  0E00               	movlw	0
  3087   001CB2  6E10               	movwf	lcd_8bit_send_char_data@l_pin_counter^0,c
  3088                           
  3089                           ;ECU_layer/LCD/ecu_lcd.c: 179:     if(((void*)0) == lcd){
  3090   001CB4  500B               	movf	lcd_8bit_send_char_data@lcd^0,w,c
  3091   001CB6  A4D8               	btfss	status,2,c
  3092   001CB8  EF60  F00E         	goto	u1511
  3093   001CBC  EF62  F00E         	goto	u1510
  3094   001CC0                     u1511:
  3095   001CC0  EF66  F00E         	goto	l2463
  3096   001CC4                     u1510:
  3097   001CC4                     
  3098                           ;ECU_layer/LCD/ecu_lcd.c: 180:         ret = (std_returntype)0x00;
  3099   001CC4  0E00               	movlw	0
  3100   001CC6  6E0F               	movwf	lcd_8bit_send_char_data@ret^0,c
  3101                           
  3102                           ;ECU_layer/LCD/ecu_lcd.c: 181:     }
  3103   001CC8  EF91  F00E         	goto	l2479
  3104   001CCC                     l2463:
  3105   001CCC  C00B  F001         	movff	lcd_8bit_send_char_data@lcd,gpio_pin_write_logic@_pin_config
  3106   001CD0  0E01               	movlw	1
  3107   001CD2  6E02               	movwf	gpio_pin_write_logic@logic^0,c
  3108   001CD4  ECFB  F00A         	call	_gpio_pin_write_logic	;wreg free
  3109   001CD8                     
  3110                           ;ECU_layer/LCD/ecu_lcd.c: 187:         for(l_pin_counter=0; l_pin_counter<8; ++l_pin_cou
      +                          nter){
  3111   001CD8  0E00               	movlw	0
  3112   001CDA  6E10               	movwf	lcd_8bit_send_char_data@l_pin_counter^0,c
  3113   001CDC                     l2471:
  3114   001CDC  500B               	movf	lcd_8bit_send_char_data@lcd^0,w,c
  3115   001CDE  2410               	addwf	lcd_8bit_send_char_data@l_pin_counter^0,w,c
  3116   001CE0  0F02               	addlw	2
  3117   001CE2  6E01               	movwf	gpio_pin_write_logic@_pin_config^0,c
  3118   001CE4  C010  F00D         	movff	lcd_8bit_send_char_data@l_pin_counter,??_lcd_8bit_send_char_data
  3119   001CE8  C00C  F00E         	movff	lcd_8bit_send_char_data@data,??_lcd_8bit_send_char_data+1
  3120   001CEC  2A0D               	incf	??_lcd_8bit_send_char_data^0,f,c
  3121   001CEE  EF7B  F00E         	goto	u1524
  3122   001CF2                     u1525:
  3123   001CF2  90D8               	bcf	status,0,c
  3124   001CF4  320E               	rrcf	(??_lcd_8bit_send_char_data+1)^0,f,c
  3125   001CF6                     u1524:
  3126   001CF6  2E0D               	decfsz	??_lcd_8bit_send_char_data^0,f,c
  3127   001CF8  EF79  F00E         	goto	u1525
  3128   001CFC  500E               	movf	(??_lcd_8bit_send_char_data+1)^0,w,c
  3129   001CFE  0B01               	andlw	1
  3130   001D00  6E02               	movwf	gpio_pin_write_logic@logic^0,c
  3131   001D02  ECFB  F00A         	call	_gpio_pin_write_logic	;wreg free
  3132   001D06                     
  3133                           ;ECU_layer/LCD/ecu_lcd.c: 189:         }
  3134   001D06  2A10               	incf	lcd_8bit_send_char_data@l_pin_counter^0,f,c
  3135   001D08  0E07               	movlw	7
  3136   001D0A  6410               	cpfsgt	lcd_8bit_send_char_data@l_pin_counter^0,c
  3137   001D0C  EF8A  F00E         	goto	u1531
  3138   001D10  EF8C  F00E         	goto	u1530
  3139   001D14                     u1531:
  3140   001D14  EF6E  F00E         	goto	l2471
  3141   001D18                     u1530:
  3142   001D18                     
  3143                           ;ECU_layer/LCD/ecu_lcd.c: 191:         ret = lcd_8bits_sned_enable_signal(lcd);
  3144   001D18  C00B  F009         	movff	lcd_8bit_send_char_data@lcd,lcd_8bits_sned_enable_signal@lcd
  3145   001D1C  ECEA  F010         	call	_lcd_8bits_sned_enable_signal	;wreg free
  3146   001D20  6E0F               	movwf	lcd_8bit_send_char_data@ret^0,c
  3147   001D22                     l2479:
  3148                           
  3149                           ;ECU_layer/LCD/ecu_lcd.c: 193:     return ret;
  3150   001D22  500F               	movf	lcd_8bit_send_char_data@ret^0,w,c
  3151   001D24  0012               	return		;funcret
  3152   001D26                     __end_of_lcd_8bit_send_char_data:
  3153                           	callstack 0
  3154                           
  3155 ;; *************** function _lcd_8bits_sned_enable_signal *****************
  3156 ;; Defined at:
  3157 ;;		line 312 in file "ECU_layer/LCD/ecu_lcd.c"
  3158 ;; Parameters:    Size  Location     Type
  3159 ;;  lcd             1    8[COMRAM] PTR const struct .
  3160 ;;		 -> lcd_2(10), 
  3161 ;; Auto vars:     Size  Location     Type
  3162 ;;  ret             1    9[COMRAM] unsigned char 
  3163 ;; Return value:  Size  Location     Type
  3164 ;;                  1    wreg      unsigned char 
  3165 ;; Registers used:
  3166 ;;		wreg, fsr2l, fsr2h, status,2, status,0, prodl, prodh, cstack
  3167 ;; Tracked objects:
  3168 ;;		On entry : 0/0
  3169 ;;		On exit  : 0/0
  3170 ;;		Unchanged: 0/0
  3171 ;; Data sizes:     COMRAM   BANK0   BANK1   BANK2   BANK3   BANK4   BANK5   BANK6   BANK7   BANK8   BANK9  BANK10  BANK1
      +1  BANK12  BANK13  BANK14  BANK15
  3172 ;;      Params:         1       0       0       0       0       0       0       0       0       0       0       0       
      +0       0       0       0       0
  3173 ;;      Locals:         1       0       0       0       0       0       0       0       0       0       0       0       
      +0       0       0       0       0
  3174 ;;      Temps:          0       0       0       0       0       0       0       0       0       0       0       0       
      +0       0       0       0       0
  3175 ;;      Totals:         2       0       0       0       0       0       0       0       0       0       0       0       
      +0       0       0       0       0
  3176 ;;Total ram usage:        2 bytes
  3177 ;; Hardware stack levels used: 1
  3178 ;; Hardware stack levels required when called: 1
  3179 ;; This function calls:
  3180 ;;		_gpio_pin_write_logic
  3181 ;; This function is called by:
  3182 ;;		_lcd_8bit_send_command
  3183 ;;		_lcd_8bit_send_char_data
  3184 ;; This function uses a non-reentrant model
  3185 ;;
  3186                           
  3187                           	psect	text19
  3188   0021D4                     __ptext19:
  3189                           	callstack 0
  3190   0021D4                     _lcd_8bits_sned_enable_signal:
  3191                           	callstack 28
  3192   0021D4  2809               	incf	lcd_8bits_sned_enable_signal@lcd^0,w,c
  3193   0021D6  6E01               	movwf	gpio_pin_write_logic@_pin_config^0,c
  3194   0021D8  0E01               	movlw	1
  3195   0021DA  6E02               	movwf	gpio_pin_write_logic@logic^0,c
  3196   0021DC  ECFB  F00A         	call	_gpio_pin_write_logic	;wreg free
  3197   0021E0                     
  3198                           ;ECU_layer/LCD/ecu_lcd.c: 315:      _delay((unsigned long)((5)*(8000000/4000000.0)));
  3199   0021E0  0E03               	movlw	3
  3200   0021E2                     u2207:
  3201   0021E2  2EE8               	decfsz	wreg,f,c
  3202   0021E4  D7FE               	bra	u2207
  3203   0021E6  0000               	nop	
  3204   0021E8                     
  3205                           ;ECU_layer/LCD/ecu_lcd.c: 316:      ret = gpio_pin_write_logic(&(lcd->lcd_en),LOW);
  3206   0021E8  2809               	incf	lcd_8bits_sned_enable_signal@lcd^0,w,c
  3207   0021EA  6E01               	movwf	gpio_pin_write_logic@_pin_config^0,c
  3208   0021EC  0E00               	movlw	0
  3209   0021EE  6E02               	movwf	gpio_pin_write_logic@logic^0,c
  3210   0021F0  ECFB  F00A         	call	_gpio_pin_write_logic	;wreg free
  3211   0021F4  6E0A               	movwf	lcd_8bits_sned_enable_signal@ret^0,c
  3212   0021F6                     
  3213                           ;ECU_layer/LCD/ecu_lcd.c: 317:      return ret;
  3214   0021F6  500A               	movf	lcd_8bits_sned_enable_signal@ret^0,w,c
  3215   0021F8  0012               	return		;funcret
  3216   0021FA                     __end_of_lcd_8bits_sned_enable_signal:
  3217                           	callstack 0
  3218                           
  3219 ;; *************** function _gpio_pin_write_logic *****************
  3220 ;; Defined at:
  3221 ;;		line 64 in file "Mcal_layer/GPIO/hal_gpio.c"
  3222 ;; Parameters:    Size  Location     Type
  3223 ;;  _pin_config     1    0[COMRAM] PTR const struct .
  3224 ;;		 -> lcd_2$lcd_data(8), lcd_2(10), key_pad$keypad_row_pins(4), key_pad(8), 
  3225 ;;  logic           1    1[COMRAM] enum E2978
  3226 ;; Auto vars:     Size  Location     Type
  3227 ;;  ret             1    7[COMRAM] unsigned char 
  3228 ;; Return value:  Size  Location     Type
  3229 ;;                  1    wreg      unsigned char 
  3230 ;; Registers used:
  3231 ;;		wreg, fsr2l, fsr2h, status,2, status,0, prodl, prodh
  3232 ;; Tracked objects:
  3233 ;;		On entry : 0/0
  3234 ;;		On exit  : 0/0
  3235 ;;		Unchanged: 0/0
  3236 ;; Data sizes:     COMRAM   BANK0   BANK1   BANK2   BANK3   BANK4   BANK5   BANK6   BANK7   BANK8   BANK9  BANK10  BANK1
      +1  BANK12  BANK13  BANK14  BANK15
  3237 ;;      Params:         2       0       0       0       0       0       0       0       0       0       0       0       
      +0       0       0       0       0
  3238 ;;      Locals:         1       0       0       0       0       0       0       0       0       0       0       0       
      +0       0       0       0       0
  3239 ;;      Temps:          5       0       0       0       0       0       0       0       0       0       0       0       
      +0       0       0       0       0
  3240 ;;      Totals:         8       0       0       0       0       0       0       0       0       0       0       0       
      +0       0       0       0       0
  3241 ;;Total ram usage:        8 bytes
  3242 ;; Hardware stack levels used: 1
  3243 ;; This function calls:
  3244 ;;		Nothing
  3245 ;; This function is called by:
  3246 ;;		_keypad_get_value
  3247 ;;		_lcd_8bit_send_command
  3248 ;;		_lcd_8bit_send_char_data
  3249 ;;		_lcd_8bits_sned_enable_signal
  3250 ;;		_gpio_pin__initialize
  3251 ;;		_lcd_4bit_send_command
  3252 ;;		_lcd_4bit_send_char_data
  3253 ;;		_lcd_send_4bits
  3254 ;;		_lcd_4bits_sned_enable_signal
  3255 ;; This function uses a non-reentrant model
  3256 ;;
  3257                           
  3258                           	psect	text20
  3259   0015F6                     __ptext20:
  3260                           	callstack 0
  3261   0015F6                     _gpio_pin_write_logic:
  3262                           	callstack 28
  3263   0015F6                     
  3264                           ;Mcal_layer/GPIO/hal_gpio.c: 65:     std_returntype ret = (std_returntype)0x01;
  3265   0015F6  0E01               	movlw	1
  3266   0015F8  6E08               	movwf	gpio_pin_write_logic@ret^0,c
  3267                           
  3268                           ;Mcal_layer/GPIO/hal_gpio.c: 66:     if(((void*)0)==_pin_config ||_pin_config->pin > 8 -
      +                          1)
  3269   0015FA  5001               	movf	gpio_pin_write_logic@_pin_config^0,w,c
  3270   0015FC  B4D8               	btfsc	status,2,c
  3271   0015FE  EF03  F00B         	goto	u1111
  3272   001602  EF05  F00B         	goto	u1110
  3273   001606                     u1111:
  3274   001606  EF15  F00B         	goto	l2235
  3275   00160A                     u1110:
  3276   00160A  5001               	movf	gpio_pin_write_logic@_pin_config^0,w,c
  3277   00160C  6ED9               	movwf	fsr2l,c
  3278   00160E  6ADA               	clrf	fsr2h,c
  3279   001610  30DF               	rrcf	223,w,c
  3280   001612  32E8               	rrcf	wreg,f,c
  3281   001614  32E8               	rrcf	wreg,f,c
  3282   001616  0B07               	andlw	7
  3283   001618  6E03               	movwf	??_gpio_pin_write_logic^0,c
  3284   00161A  0E07               	movlw	7
  3285   00161C  6403               	cpfsgt	??_gpio_pin_write_logic^0,c
  3286   00161E  EF13  F00B         	goto	u1121
  3287   001622  EF15  F00B         	goto	u1120
  3288   001626                     u1121:
  3289   001626  EF6C  F00B         	goto	l2243
  3290   00162A                     u1120:
  3291   00162A                     l2235:
  3292                           
  3293                           ;Mcal_layer/GPIO/hal_gpio.c: 67:     {;Mcal_layer/GPIO/hal_gpio.c: 68:         ret = (st
      +                          d_returntype)0x00 ;
  3294   00162A  0E00               	movlw	0
  3295   00162C  6E08               	movwf	gpio_pin_write_logic@ret^0,c
  3296                           
  3297                           ;Mcal_layer/GPIO/hal_gpio.c: 69:     }
  3298   00162E  EF81  F00B         	goto	l2245
  3299   001632                     l2237:
  3300                           
  3301                           ;Mcal_layer/GPIO/hal_gpio.c: 73:                 (*lat_reg[_pin_config->port]&=~((uint8)
      +                          1<<_pin_config->pin));
  3302   001632  5001               	movf	gpio_pin_write_logic@_pin_config^0,w,c
  3303   001634  6ED9               	movwf	fsr2l,c
  3304   001636  6ADA               	clrf	fsr2h,c
  3305   001638  30DF               	rrcf	223,w,c
  3306   00163A  32E8               	rrcf	wreg,f,c
  3307   00163C  32E8               	rrcf	wreg,f,c
  3308   00163E  0B07               	andlw	7
  3309   001640  6E03               	movwf	??_gpio_pin_write_logic^0,c
  3310   001642  0E01               	movlw	1
  3311   001644  6E04               	movwf	(??_gpio_pin_write_logic+1)^0,c
  3312   001646  2A03               	incf	??_gpio_pin_write_logic^0,f,c
  3313   001648  EF28  F00B         	goto	u1134
  3314   00164C                     u1135:
  3315   00164C  90D8               	bcf	status,0,c
  3316   00164E  3604               	rlcf	(??_gpio_pin_write_logic+1)^0,f,c
  3317   001650                     u1134:
  3318   001650  2E03               	decfsz	??_gpio_pin_write_logic^0,f,c
  3319   001652  EF26  F00B         	goto	u1135
  3320   001656  5004               	movf	(??_gpio_pin_write_logic+1)^0,w,c
  3321   001658  0AFF               	xorlw	255
  3322   00165A  6E05               	movwf	(??_gpio_pin_write_logic+2)^0,c
  3323   00165C  5001               	movf	gpio_pin_write_logic@_pin_config^0,w,c
  3324   00165E  6ED9               	movwf	fsr2l,c
  3325   001660  6ADA               	clrf	fsr2h,c
  3326   001662  50DF               	movf	223,w,c
  3327   001664  0B07               	andlw	7
  3328   001666  0D02               	mullw	2
  3329   001668  50F3               	movf	243,w,c
  3330   00166A  0F3E               	addlw	low _lat_reg
  3331   00166C  6ED9               	movwf	fsr2l,c
  3332   00166E  6ADA               	clrf	fsr2h,c
  3333   001670  CFDE F006          	movff	postinc2,??_gpio_pin_write_logic+3
  3334   001674  CFDD F007          	movff	postdec2,??_gpio_pin_write_logic+4
  3335   001678  C006  FFD9         	movff	??_gpio_pin_write_logic+3,fsr2l
  3336   00167C  C007  FFDA         	movff	??_gpio_pin_write_logic+4,fsr2h
  3337   001680  5005               	movf	(??_gpio_pin_write_logic+2)^0,w,c
  3338   001682  16DF               	andwf	indf2,f,c
  3339                           
  3340                           ;Mcal_layer/GPIO/hal_gpio.c: 74:                 break;
  3341   001684  EF81  F00B         	goto	l2245
  3342   001688                     l2239:
  3343                           
  3344                           ;Mcal_layer/GPIO/hal_gpio.c: 76:                 (*lat_reg[_pin_config->port]|=((uint8)1
      +                          <<_pin_config->pin));
  3345   001688  5001               	movf	gpio_pin_write_logic@_pin_config^0,w,c
  3346   00168A  6ED9               	movwf	fsr2l,c
  3347   00168C  6ADA               	clrf	fsr2h,c
  3348   00168E  30DF               	rrcf	223,w,c
  3349   001690  32E8               	rrcf	wreg,f,c
  3350   001692  32E8               	rrcf	wreg,f,c
  3351   001694  0B07               	andlw	7
  3352   001696  6E03               	movwf	??_gpio_pin_write_logic^0,c
  3353   001698  0E01               	movlw	1
  3354   00169A  6E04               	movwf	(??_gpio_pin_write_logic+1)^0,c
  3355   00169C  2A03               	incf	??_gpio_pin_write_logic^0,f,c
  3356   00169E  EF53  F00B         	goto	u1144
  3357   0016A2                     u1145:
  3358   0016A2  90D8               	bcf	status,0,c
  3359   0016A4  3604               	rlcf	(??_gpio_pin_write_logic+1)^0,f,c
  3360   0016A6                     u1144:
  3361   0016A6  2E03               	decfsz	??_gpio_pin_write_logic^0,f,c
  3362   0016A8  EF51  F00B         	goto	u1145
  3363   0016AC  5001               	movf	gpio_pin_write_logic@_pin_config^0,w,c
  3364   0016AE  6ED9               	movwf	fsr2l,c
  3365   0016B0  6ADA               	clrf	fsr2h,c
  3366   0016B2  50DF               	movf	223,w,c
  3367   0016B4  0B07               	andlw	7
  3368   0016B6  0D02               	mullw	2
  3369   0016B8  50F3               	movf	243,w,c
  3370   0016BA  0F3E               	addlw	low _lat_reg
  3371   0016BC  6ED9               	movwf	fsr2l,c
  3372   0016BE  6ADA               	clrf	fsr2h,c
  3373   0016C0  CFDE F005          	movff	postinc2,??_gpio_pin_write_logic+2
  3374   0016C4  CFDD F006          	movff	postdec2,??_gpio_pin_write_logic+3
  3375   0016C8  C005  FFD9         	movff	??_gpio_pin_write_logic+2,fsr2l
  3376   0016CC  C006  FFDA         	movff	??_gpio_pin_write_logic+3,fsr2h
  3377   0016D0  5004               	movf	(??_gpio_pin_write_logic+1)^0,w,c
  3378   0016D2  12DF               	iorwf	indf2,f,c
  3379                           
  3380                           ;Mcal_layer/GPIO/hal_gpio.c: 77:                 break;
  3381   0016D4  EF81  F00B         	goto	l2245
  3382   0016D8                     l2243:
  3383   0016D8  5002               	movf	gpio_pin_write_logic@logic^0,w,c
  3384   0016DA  6E03               	movwf	??_gpio_pin_write_logic^0,c
  3385   0016DC  6A04               	clrf	(??_gpio_pin_write_logic+1)^0,c
  3386                           
  3387                           ; Switch on 2 bytes has been partitioned into a top level switch of size 1, and 1 sub-sw
      +                          itches
  3388                           ; Switch size 1, requested type "simple"
  3389                           ; Number of cases is 1, Range of values is 0 to 0
  3390                           ; switch strategies available:
  3391                           ; Name         Instructions Cycles
  3392                           ; simple_byte            4     3 (average)
  3393                           ;	Chosen strategy is simple_byte
  3394   0016DE  5004               	movf	(??_gpio_pin_write_logic+1)^0,w,c
  3395   0016E0  0A00               	xorlw	0	; case 0
  3396   0016E2  B4D8               	btfsc	status,2,c
  3397   0016E4  EF76  F00B         	goto	l3143
  3398   0016E8  EF15  F00B         	goto	l2235
  3399   0016EC                     l3143:
  3400                           
  3401                           ; Switch size 1, requested type "simple"
  3402                           ; Number of cases is 2, Range of values is 0 to 1
  3403                           ; switch strategies available:
  3404                           ; Name         Instructions Cycles
  3405                           ; simple_byte            7     4 (average)
  3406                           ;	Chosen strategy is simple_byte
  3407   0016EC  5003               	movf	??_gpio_pin_write_logic^0,w,c
  3408   0016EE  0A00               	xorlw	0	; case 0
  3409   0016F0  B4D8               	btfsc	status,2,c
  3410   0016F2  EF19  F00B         	goto	l2237
  3411   0016F6  0A01               	xorlw	1	; case 1
  3412   0016F8  B4D8               	btfsc	status,2,c
  3413   0016FA  EF44  F00B         	goto	l2239
  3414   0016FE  EF15  F00B         	goto	l2235
  3415   001702                     l2245:
  3416                           
  3417                           ;Mcal_layer/GPIO/hal_gpio.c: 82:     return ret;
  3418   001702  5008               	movf	gpio_pin_write_logic@ret^0,w,c
  3419   001704  0012               	return		;funcret
  3420   001706                     __end_of_gpio_pin_write_logic:
  3421                           	callstack 0
  3422                           
  3423 ;; *************** function _convert_int_to_string *****************
  3424 ;; Defined at:
  3425 ;;		line 282 in file "ECU_layer/LCD/ecu_lcd.c"
  3426 ;; Parameters:    Size  Location     Type
  3427 ;;  value           2   42[COMRAM] unsigned int 
  3428 ;;  str             1   44[COMRAM] PTR unsigned char 
  3429 ;;		 -> str(2), 
  3430 ;; Auto vars:     Size  Location     Type
  3431 ;;  ret             1   45[COMRAM] unsigned char 
  3432 ;; Return value:  Size  Location     Type
  3433 ;;                  1    wreg      unsigned char 
  3434 ;; Registers used:
  3435 ;;		wreg, fsr1l, fsr1h, fsr2l, fsr2h, status,2, status,0, tblptrl, tblptrh, tblptru, cstack
  3436 ;; Tracked objects:
  3437 ;;		On entry : 0/0
  3438 ;;		On exit  : 0/0
  3439 ;;		Unchanged: 0/0
  3440 ;; Data sizes:     COMRAM   BANK0   BANK1   BANK2   BANK3   BANK4   BANK5   BANK6   BANK7   BANK8   BANK9  BANK10  BANK1
      +1  BANK12  BANK13  BANK14  BANK15
  3441 ;;      Params:         3       0       0       0       0       0       0       0       0       0       0       0       
      +0       0       0       0       0
  3442 ;;      Locals:         1       0       0       0       0       0       0       0       0       0       0       0       
      +0       0       0       0       0
  3443 ;;      Temps:          0       0       0       0       0       0       0       0       0       0       0       0       
      +0       0       0       0       0
  3444 ;;      Totals:         4       0       0       0       0       0       0       0       0       0       0       0       
      +0       0       0       0       0
  3445 ;;Total ram usage:        4 bytes
  3446 ;; Hardware stack levels used: 1
  3447 ;; Hardware stack levels required when called: 5
  3448 ;; This function calls:
  3449 ;;		_memset
  3450 ;;		_sprintf
  3451 ;; This function is called by:
  3452 ;;		_Add_operation
  3453 ;;		_Sub_operation
  3454 ;;		_Mult_operation
  3455 ;;		_Div_operation
  3456 ;; This function uses a non-reentrant model
  3457 ;;
  3458                           
  3459                           	psect	text21
  3460   001FC8                     __ptext21:
  3461                           	callstack 0
  3462   001FC8                     _convert_int_to_string:
  3463                           	callstack 24
  3464   001FC8                     
  3465                           ;ECU_layer/LCD/ecu_lcd.c: 283:      std_returntype ret = (std_returntype)0x01;
  3466   001FC8  0E01               	movlw	1
  3467   001FCA  6E2E               	movwf	convert_int_to_string@ret^0,c
  3468                           
  3469                           ;ECU_layer/LCD/ecu_lcd.c: 284:        if(((void*)0)==str){
  3470   001FCC  502D               	movf	convert_int_to_string@str^0,w,c
  3471   001FCE  A4D8               	btfss	status,2,c
  3472   001FD0  EFEC  F00F         	goto	u1711
  3473   001FD4  EFEE  F00F         	goto	u1710
  3474   001FD8                     u1711:
  3475   001FD8  EFF2  F00F         	goto	l2695
  3476   001FDC                     u1710:
  3477   001FDC                     
  3478                           ;ECU_layer/LCD/ecu_lcd.c: 285:            ret = (std_returntype)0x00 ;
  3479   001FDC  0E00               	movlw	0
  3480   001FDE  6E2E               	movwf	convert_int_to_string@ret^0,c
  3481                           
  3482                           ;ECU_layer/LCD/ecu_lcd.c: 286:        }
  3483   001FE0  EF08  F010         	goto	l2699
  3484   001FE4                     l2695:
  3485                           
  3486                           ;ECU_layer/LCD/ecu_lcd.c: 288:         {;ECU_layer/LCD/ecu_lcd.c: 289:            memset
      +                          ((char *)str , '\0' , 11);
  3487   001FE4  C02D  F001         	movff	convert_int_to_string@str,memset@dest
  3488   001FE8  0E00               	movlw	0
  3489   001FEA  6E03               	movwf	(memset@c+1)^0,c
  3490   001FEC  0E00               	movlw	0
  3491   001FEE  6E02               	movwf	memset@c^0,c
  3492   001FF0  0E00               	movlw	0
  3493   001FF2  6E05               	movwf	(memset@n+1)^0,c
  3494   001FF4  0E0B               	movlw	11
  3495   001FF6  6E04               	movwf	memset@n^0,c
  3496   001FF8  ECD2  F010         	call	_memset	;wreg free
  3497   001FFC                     
  3498                           ;ECU_layer/LCD/ecu_lcd.c: 290:            sprintf(str , "%i" , value);
  3499   001FFC  C02D  F01A         	movff	convert_int_to_string@str,sprintf@s
  3500   002000  0E11               	movlw	low STR_1
  3501   002002  6E1B               	movwf	sprintf@fmt^0,c
  3502   002004  C02B  F01C         	movff	convert_int_to_string@value,?_sprintf+2
  3503   002008  C02C  F01D         	movff	convert_int_to_string@value+1,?_sprintf+3
  3504   00200C  EC86  F010         	call	_sprintf	;wreg free
  3505   002010                     l2699:
  3506                           
  3507                           ;ECU_layer/LCD/ecu_lcd.c: 292:      return ret;
  3508   002010  502E               	movf	convert_int_to_string@ret^0,w,c
  3509   002012  0012               	return		;funcret
  3510   002014                     __end_of_convert_int_to_string:
  3511                           	callstack 0
  3512                           
  3513 ;; *************** function _sprintf *****************
  3514 ;; Defined at:
  3515 ;;		line 9 in file "C:\Program Files\Microchip\xc8\v2.45\pic\sources\c99\common\nf_sprintf.c"
  3516 ;; Parameters:    Size  Location     Type
  3517 ;;  s               1   25[COMRAM] PTR unsigned char 
  3518 ;;		 -> str(2), convert_short_to_string@Temp_String(6), 
  3519 ;;  fmt             1   26[COMRAM] PTR const unsigned char 
  3520 ;;		 -> STR_3(3), STR_2(3), STR_1(3), 
  3521 ;; Auto vars:     Size  Location     Type
  3522 ;;  f              12   30[COMRAM] struct _IO_FILE
  3523 ;;  ret             2    0        int 
  3524 ;;  ap              1   29[COMRAM] PTR void [1]
  3525 ;;		 -> ?_sprintf(2), 
  3526 ;; Return value:  Size  Location     Type
  3527 ;;                  2   25[COMRAM] int 
  3528 ;; Registers used:
  3529 ;;		wreg, fsr1l, fsr1h, fsr2l, fsr2h, status,2, status,0, tblptrl, tblptrh, tblptru, cstack
  3530 ;; Tracked objects:
  3531 ;;		On entry : 0/0
  3532 ;;		On exit  : 0/0
  3533 ;;		Unchanged: 0/0
  3534 ;; Data sizes:     COMRAM   BANK0   BANK1   BANK2   BANK3   BANK4   BANK5   BANK6   BANK7   BANK8   BANK9  BANK10  BANK1
      +1  BANK12  BANK13  BANK14  BANK15
  3535 ;;      Params:         4       0       0       0       0       0       0       0       0       0       0       0       
      +0       0       0       0       0
  3536 ;;      Locals:        13       0       0       0       0       0       0       0       0       0       0       0       
      +0       0       0       0       0
  3537 ;;      Temps:          0       0       0       0       0       0       0       0       0       0       0       0       
      +0       0       0       0       0
  3538 ;;      Totals:        17       0       0       0       0       0       0       0       0       0       0       0       
      +0       0       0       0       0
  3539 ;;Total ram usage:       17 bytes
  3540 ;; Hardware stack levels used: 1
  3541 ;; Hardware stack levels required when called: 4
  3542 ;; This function calls:
  3543 ;;		_vfprintf
  3544 ;; This function is called by:
  3545 ;;		_convert_int_to_string
  3546 ;;		_convert_byte_to_string
  3547 ;;		_convert_short_to_string
  3548 ;; This function uses a non-reentrant model
  3549 ;;
  3550                           
  3551                           	psect	text22
  3552   00210C                     __ptext22:
  3553                           	callstack 0
  3554   00210C                     _sprintf:
  3555                           	callstack 24
  3556   00210C  0E1C               	movlw	low (?_sprintf+2)
  3557   00210E  6E1E               	movwf	sprintf@ap^0,c
  3558   002110  C01A  F01F         	movff	sprintf@s,sprintf@f
  3559   002114  0E00               	movlw	0
  3560   002116  6E23               	movwf	(sprintf@f+4)^0,c
  3561   002118  0E00               	movlw	0
  3562   00211A  6E22               	movwf	(sprintf@f+3)^0,c
  3563   00211C  0E00               	movlw	0
  3564   00211E  6E2A               	movwf	(sprintf@f+11)^0,c
  3565   002120  0E00               	movlw	0
  3566   002122  6E29               	movwf	(sprintf@f+10)^0,c
  3567   002124  0E1F               	movlw	low sprintf@f
  3568   002126  6E16               	movwf	vfprintf@fp^0,c
  3569   002128  C01B  F017         	movff	sprintf@fmt,vfprintf@fmt
  3570   00212C  0E1E               	movlw	low sprintf@ap
  3571   00212E  6E18               	movwf	vfprintf@ap^0,c
  3572   002130  EC2B  F010         	call	_vfprintf	;wreg free
  3573   002134  501A               	movf	sprintf@s^0,w,c
  3574   002136  2422               	addwf	(sprintf@f+3)^0,w,c
  3575   002138  6ED9               	movwf	fsr2l,c
  3576   00213A  6ADA               	clrf	fsr2h,c
  3577   00213C  6ADF               	clrf	indf2,c
  3578   00213E  0012               	return		;funcret
  3579   002140                     __end_of_sprintf:
  3580                           	callstack 0
  3581                           
  3582 ;; *************** function _vfprintf *****************
  3583 ;; Defined at:
  3584 ;;		line 1817 in file "C:\Program Files\Microchip\xc8\v2.45\pic\sources\c99\common\doprnt.c"
  3585 ;; Parameters:    Size  Location     Type
  3586 ;;  fp              1   21[COMRAM] PTR struct _IO_FILE
  3587 ;;		 -> sprintf@f(12), 
  3588 ;;  fmt             1   22[COMRAM] PTR const unsigned char 
  3589 ;;		 -> STR_3(3), STR_2(3), STR_1(3), 
  3590 ;;  ap              1   23[COMRAM] PTR PTR void 
  3591 ;;		 -> sprintf@ap(1), 
  3592 ;; Auto vars:     Size  Location     Type
  3593 ;;  cfmt            1   24[COMRAM] PTR unsigned char 
  3594 ;;		 -> STR_3(3), STR_2(3), STR_1(3), 
  3595 ;; Return value:  Size  Location     Type
  3596 ;;                  2   21[COMRAM] int 
  3597 ;; Registers used:
  3598 ;;		wreg, fsr1l, fsr1h, fsr2l, fsr2h, status,2, status,0, tblptrl, tblptrh, tblptru, cstack
  3599 ;; Tracked objects:
  3600 ;;		On entry : 0/0
  3601 ;;		On exit  : 0/0
  3602 ;;		Unchanged: 0/0
  3603 ;; Data sizes:     COMRAM   BANK0   BANK1   BANK2   BANK3   BANK4   BANK5   BANK6   BANK7   BANK8   BANK9  BANK10  BANK1
      +1  BANK12  BANK13  BANK14  BANK15
  3604 ;;      Params:         3       0       0       0       0       0       0       0       0       0       0       0       
      +0       0       0       0       0
  3605 ;;      Locals:         1       0       0       0       0       0       0       0       0       0       0       0       
      +0       0       0       0       0
  3606 ;;      Temps:          0       0       0       0       0       0       0       0       0       0       0       0       
      +0       0       0       0       0
  3607 ;;      Totals:         4       0       0       0       0       0       0       0       0       0       0       0       
      +0       0       0       0       0
  3608 ;;Total ram usage:        4 bytes
  3609 ;; Hardware stack levels used: 1
  3610 ;; Hardware stack levels required when called: 3
  3611 ;; This function calls:
  3612 ;;		_vfpfcnvrt
  3613 ;; This function is called by:
  3614 ;;		_sprintf
  3615 ;; This function uses a non-reentrant model
  3616 ;;
  3617                           
  3618                           	psect	text23
  3619   002056                     __ptext23:
  3620                           	callstack 0
  3621   002056                     _vfprintf:
  3622                           	callstack 24
  3623   002056                     
  3624                           ;C:\Program Files\Microchip\xc8\v2.45\pic\sources\c99\common\doprnt.c: 1817: int vfprint
      +                          f(FILE *fp, const char *fmt, va_list ap);C:\Program Files\Microchip\xc8\v2.45\pic\source
      +                          s\c99\common\doprnt.c: 1818: {;C:\Program Files\Microchip\xc8\v2.45\pic\sources\c99\comm
      +                          on\doprnt.c: 1820:     char *cfmt;;C:\Program Files\Microchip\xc8\v2.45\pic\sources\c99\
      +                          common\doprnt.c: 1822:     cfmt = (char *)fmt;
  3625   002056  C017  F019         	movff	vfprintf@fmt,vfprintf@cfmt
  3626                           
  3627                           ;C:\Program Files\Microchip\xc8\v2.45\pic\sources\c99\common\doprnt.c: 1826:     while (
      +                          *cfmt) {
  3628   00205A  EF37  F010         	goto	l2487
  3629   00205E                     l2485:
  3630                           
  3631                           ;C:\Program Files\Microchip\xc8\v2.45\pic\sources\c99\common\doprnt.c: 1830:    vfpfcnvr
      +                          t(fp, &cfmt, ap);
  3632   00205E  C016  F00B         	movff	vfprintf@fp,vfpfcnvrt@fp
  3633   002062  0E19               	movlw	low vfprintf@cfmt
  3634   002064  6E0C               	movwf	vfpfcnvrt@fmt^0,c
  3635   002066  C018  F00D         	movff	vfprintf@ap,vfpfcnvrt@ap
  3636   00206A  EC8C  F009         	call	_vfpfcnvrt	;wreg free
  3637   00206E                     l2487:
  3638                           
  3639                           ;C:\Program Files\Microchip\xc8\v2.45\pic\sources\c99\common\doprnt.c: 1826:     while (
      +                          *cfmt) {
  3640   00206E  C019  FFF6         	movff	vfprintf@cfmt,tblptrl
  3641   002072                     	if	1	;There is more than 1 active tblptr byte
  3642   002072  0E10               	movlw	high __smallconst
  3643   002074  6EF7               	movwf	tblptrh,c
  3644   002076                     	endif
  3645   002076                     	if	0	;tblptru may be non-zero
  3646   002076                     	endif
  3647   002076                     	if	0	;tblptru may be non-zero
  3648   002076                     	endif
  3649   002076  0008               	tblrd		*
  3650   002078  50F5               	movf	tablat,w,c
  3651   00207A  0900               	iorlw	0
  3652   00207C  A4D8               	btfss	status,2,c
  3653   00207E  EF43  F010         	goto	u1541
  3654   002082  EF45  F010         	goto	u1540
  3655   002086                     u1541:
  3656   002086  EF2F  F010         	goto	l2485
  3657   00208A                     u1540:
  3658   00208A                     
  3659                           ;C:\Program Files\Microchip\xc8\v2.45\pic\sources\c99\common\doprnt.c: 1835:  return 0;
  3660   00208A  0E00               	movlw	0
  3661   00208C  6E17               	movwf	(?_vfprintf+1)^0,c
  3662   00208E  0E00               	movlw	0
  3663   002090  6E16               	movwf	?_vfprintf^0,c
  3664   002092  0012               	return		;funcret
  3665   002094                     __end_of_vfprintf:
  3666                           	callstack 0
  3667                           
  3668 ;; *************** function _vfpfcnvrt *****************
  3669 ;; Defined at:
  3670 ;;		line 1177 in file "C:\Program Files\Microchip\xc8\v2.45\pic\sources\c99\common\doprnt.c"
  3671 ;; Parameters:    Size  Location     Type
  3672 ;;  fp              1   10[COMRAM] PTR struct _IO_FILE
  3673 ;;		 -> sprintf@f(12), 
  3674 ;;  fmt             1   11[COMRAM] PTR PTR unsigned char 
  3675 ;;		 -> vfprintf@cfmt(1), 
  3676 ;;  ap              1   12[COMRAM] PTR PTR void 
  3677 ;;		 -> sprintf@ap(1), 
  3678 ;; Auto vars:     Size  Location     Type
  3679 ;;  convarg         4   16[COMRAM] struct .
  3680 ;;  c               1   20[COMRAM] unsigned char 
  3681 ;;  cp              1   15[COMRAM] PTR unsigned char 
  3682 ;;		 -> STR_3(3), STR_2(3), STR_1(3), 
  3683 ;;  done            1   14[COMRAM] _Bool 
  3684 ;; Return value:  Size  Location     Type
  3685 ;;                  1    wreg      void 
  3686 ;; Registers used:
  3687 ;;		wreg, fsr1l, fsr1h, fsr2l, fsr2h, status,2, status,0, tblptrl, tblptrh, tblptru, cstack
  3688 ;; Tracked objects:
  3689 ;;		On entry : 0/0
  3690 ;;		On exit  : 0/0
  3691 ;;		Unchanged: 0/0
  3692 ;; Data sizes:     COMRAM   BANK0   BANK1   BANK2   BANK3   BANK4   BANK5   BANK6   BANK7   BANK8   BANK9  BANK10  BANK1
      +1  BANK12  BANK13  BANK14  BANK15
  3693 ;;      Params:         3       0       0       0       0       0       0       0       0       0       0       0       
      +0       0       0       0       0
  3694 ;;      Locals:         7       0       0       0       0       0       0       0       0       0       0       0       
      +0       0       0       0       0
  3695 ;;      Temps:          1       0       0       0       0       0       0       0       0       0       0       0       
      +0       0       0       0       0
  3696 ;;      Totals:        11       0       0       0       0       0       0       0       0       0       0       0       
      +0       0       0       0       0
  3697 ;;Total ram usage:       11 bytes
  3698 ;; Hardware stack levels used: 1
  3699 ;; Hardware stack levels required when called: 2
  3700 ;; This function calls:
  3701 ;;		___awdiv
  3702 ;;		___awmod
  3703 ;;		_abs
  3704 ;;		_fputc
  3705 ;; This function is called by:
  3706 ;;		_vfprintf
  3707 ;; This function uses a non-reentrant model
  3708 ;;
  3709                           
  3710                           	psect	text24
  3711   001318                     __ptext24:
  3712                           	callstack 0
  3713   001318                     _vfpfcnvrt:
  3714                           	callstack 24
  3715   001318                     
  3716                           ;C:\Program Files\Microchip\xc8\v2.45\pic\sources\c99\common\doprnt.c: 1177: vfpfcnvrt(F
      +                          ILE *fp, char *fmt[], va_list ap);C:\Program Files\Microchip\xc8\v2.45\pic\sources\c99\c
      +                          ommon\doprnt.c: 1178: {;C:\Program Files\Microchip\xc8\v2.45\pic\sources\c99\common\dopr
      +                          nt.c: 1179:     char c, *cp;;C:\Program Files\Microchip\xc8\v2.45\pic\sources\c99\common
      +                          \doprnt.c: 1180:     _Bool done;;C:\Program Files\Microchip\xc8\v2.45\pic\sources\c99\co
      +                          mmon\doprnt.c: 1188:  } convarg;;C:\Program Files\Microchip\xc8\v2.45\pic\sources\c99\co
      +                          mmon\doprnt.c: 1201:     if ((*fmt)[0] == '%') {
  3717   001318  500C               	movf	vfpfcnvrt@fmt^0,w,c
  3718   00131A  6ED9               	movwf	fsr2l,c
  3719   00131C  6ADA               	clrf	fsr2h,c
  3720   00131E  CFDF FFF6          	movff	indf2,tblptrl
  3721   001322                     	if	1	;There is more than 1 active tblptr byte
  3722   001322  0E10               	movlw	high __smallconst
  3723   001324  6EF7               	movwf	tblptrh,c
  3724   001326                     	endif
  3725   001326                     	if	0	;tblptru may be non-zero
  3726   001326                     	endif
  3727   001326                     	if	0	;tblptru may be non-zero
  3728   001326                     	endif
  3729   001326  0008               	tblrd		*
  3730   001328  50F5               	movf	tablat,w,c
  3731   00132A  0A25               	xorlw	37
  3732   00132C  A4D8               	btfss	status,2,c
  3733   00132E  EF9B  F009         	goto	u1321
  3734   001332  EF9D  F009         	goto	u1320
  3735   001336                     u1321:
  3736   001336  EF56  F00A         	goto	l2407
  3737   00133A                     u1320:
  3738   00133A                     
  3739                           ;C:\Program Files\Microchip\xc8\v2.45\pic\sources\c99\common\doprnt.c: 1202:         ++*
      +                          fmt;
  3740   00133A  500C               	movf	vfpfcnvrt@fmt^0,w,c
  3741   00133C  6ED9               	movwf	fsr2l,c
  3742   00133E  6ADA               	clrf	fsr2h,c
  3743   001340  2ADF               	incf	indf2,f,c
  3744   001342                     
  3745                           ;C:\Program Files\Microchip\xc8\v2.45\pic\sources\c99\common\doprnt.c: 1204:         fla
      +                          gs = width = 0;
  3746   001342  0E00               	movlw	0
  3747   001344  6E6B               	movwf	(_width+1)^0,c
  3748   001346  0E00               	movlw	0
  3749   001348  6E6A               	movwf	_width^0,c
  3750   00134A  C06A  F070         	movff	_width,_flags
  3751   00134E                     
  3752                           ;C:\Program Files\Microchip\xc8\v2.45\pic\sources\c99\common\doprnt.c: 1205:         pre
      +                          c = -1;
  3753   00134E  686C               	setf	_prec^0,c
  3754   001350  686D               	setf	(_prec+1)^0,c
  3755   001352                     
  3756                           ;C:\Program Files\Microchip\xc8\v2.45\pic\sources\c99\common\doprnt.c: 1291:   cp = *fmt
      +                          ;
  3757   001352  500C               	movf	vfpfcnvrt@fmt^0,w,c
  3758   001354  6ED9               	movwf	fsr2l,c
  3759   001356  6ADA               	clrf	fsr2h,c
  3760   001358  50DF               	movf	indf2,w,c
  3761   00135A  6E10               	movwf	vfpfcnvrt@cp^0,c
  3762   00135C                     
  3763                           ;C:\Program Files\Microchip\xc8\v2.45\pic\sources\c99\common\doprnt.c: 1361:   if (*cp =
      +                          = 'd' || *cp == 'i') {
  3764   00135C  C010  FFF6         	movff	vfpfcnvrt@cp,tblptrl
  3765   001360                     	if	1	;There is more than 1 active tblptr byte
  3766   001360  0E10               	movlw	high __smallconst
  3767   001362  6EF7               	movwf	tblptrh,c
  3768   001364                     	endif
  3769   001364                     	if	0	;tblptru may be non-zero
  3770   001364                     	endif
  3771   001364                     	if	0	;tblptru may be non-zero
  3772   001364                     	endif
  3773   001364  0008               	tblrd		*
  3774   001366  50F5               	movf	tablat,w,c
  3775   001368  0A64               	xorlw	100
  3776   00136A  B4D8               	btfsc	status,2,c
  3777   00136C  EFBA  F009         	goto	u1331
  3778   001370  EFBC  F009         	goto	u1330
  3779   001374                     u1331:
  3780   001374  EFCA  F009         	goto	l2377
  3781   001378                     u1330:
  3782   001378  C010  FFF6         	movff	vfpfcnvrt@cp,tblptrl
  3783   00137C                     	if	1	;There is more than 1 active tblptr byte
  3784   00137C  0E10               	movlw	high __smallconst
  3785   00137E  6EF7               	movwf	tblptrh,c
  3786   001380                     	endif
  3787   001380                     	if	0	;tblptru may be non-zero
  3788   001380                     	endif
  3789   001380                     	if	0	;tblptru may be non-zero
  3790   001380                     	endif
  3791   001380  0008               	tblrd		*
  3792   001382  50F5               	movf	tablat,w,c
  3793   001384  0A69               	xorlw	105
  3794   001386  A4D8               	btfss	status,2,c
  3795   001388  EFC8  F009         	goto	u1341
  3796   00138C  EFCA  F009         	goto	u1340
  3797   001390                     u1341:
  3798   001390  EF50  F00A         	goto	l2403
  3799   001394                     u1340:
  3800   001394                     l2377:
  3801                           
  3802                           ;C:\Program Files\Microchip\xc8\v2.45\pic\sources\c99\common\doprnt.c: 1404:    convarg.
      +                          sint = (vfpf_sint_t)(int)(*(int *)__va_arg(*(int **)ap, (int)0));
  3803   001394  500D               	movf	vfpfcnvrt@ap^0,w,c
  3804   001396  6ED9               	movwf	fsr2l,c
  3805   001398  6ADA               	clrf	fsr2h,c
  3806   00139A  0E02               	movlw	2
  3807   00139C  26DF               	addwf	indf2,f,c
  3808   00139E  5CDF               	subwf	indf2,w,c
  3809   0013A0  6ED9               	movwf	fsr2l,c
  3810   0013A2  6ADA               	clrf	fsr2h,c
  3811   0013A4  CFDE F011          	movff	postinc2,vfpfcnvrt@convarg
  3812   0013A8  CFDE F012          	movff	postinc2,vfpfcnvrt@convarg+1
  3813   0013AC                     
  3814                           ;C:\Program Files\Microchip\xc8\v2.45\pic\sources\c99\common\doprnt.c: 1406:    *fmt = c
      +                          p+1;
  3815   0013AC  500C               	movf	vfpfcnvrt@fmt^0,w,c
  3816   0013AE  6ED9               	movwf	fsr2l,c
  3817   0013B0  6ADA               	clrf	fsr2h,c
  3818   0013B2  2810               	incf	vfpfcnvrt@cp^0,w,c
  3819   0013B4  6EDF               	movwf	indf2,c
  3820   0013B6                     
  3821                           ;C:\Program Files\Microchip\xc8\v2.45\pic\sources\c99\common\doprnt.c: 1408:    c = size
      +                          of(dbuf);
  3822   0013B6  0E20               	movlw	32
  3823   0013B8  6E15               	movwf	vfpfcnvrt@c^0,c
  3824                           
  3825                           ;C:\Program Files\Microchip\xc8\v2.45\pic\sources\c99\common\doprnt.c: 1409:    done = c
      +                          onvarg.sint < 0;
  3826   0013BA  BE12               	btfsc	(vfpfcnvrt@convarg+1)^0,7,c
  3827   0013BC  EFE2  F009         	goto	u1351
  3828   0013C0  EFE5  F009         	goto	u1350
  3829   0013C4                     u1351:
  3830   0013C4  0E01               	movlw	1
  3831   0013C6  EFE6  F009         	goto	u1360
  3832   0013CA                     u1350:
  3833   0013CA  0E00               	movlw	0
  3834   0013CC                     u1360:
  3835   0013CC  6E0F               	movwf	vfpfcnvrt@done^0,c
  3836   0013CE                     l2383:
  3837                           
  3838                           ;C:\Program Files\Microchip\xc8\v2.45\pic\sources\c99\common\doprnt.c: 1411:     dbuf[--
      +                          c] = abs(convarg.sint % 10) + '0';
  3839   0013CE  0615               	decf	vfpfcnvrt@c^0,f,c
  3840   0013D0  5015               	movf	vfpfcnvrt@c^0,w,c
  3841   0013D2  0F80               	addlw	low _dbuf
  3842   0013D4  6ED9               	movwf	fsr2l,c
  3843   0013D6  6ADA               	clrf	fsr2h,c
  3844   0013D8  C011  F001         	movff	vfpfcnvrt@convarg,___awmod@dividend
  3845   0013DC  C012  F002         	movff	vfpfcnvrt@convarg+1,___awmod@dividend+1
  3846   0013E0  0E00               	movlw	0
  3847   0013E2  6E04               	movwf	(___awmod@divisor+1)^0,c
  3848   0013E4  0E0A               	movlw	10
  3849   0013E6  6E03               	movwf	___awmod@divisor^0,c
  3850   0013E8  ECCA  F00C         	call	___awmod	;wreg free
  3851   0013EC  C001  F007         	movff	?___awmod,abs@a
  3852   0013F0  C002  F008         	movff	?___awmod+1,abs@a+1
  3853   0013F4  ECA0  F010         	call	_abs	;wreg free
  3854   0013F8  5007               	movf	?_abs^0,w,c
  3855   0013FA  0F30               	addlw	48
  3856   0013FC  6EDF               	movwf	indf2,c
  3857   0013FE                     
  3858                           ;C:\Program Files\Microchip\xc8\v2.45\pic\sources\c99\common\doprnt.c: 1412:     convarg
      +                          .sint /= 10;
  3859   0013FE  C011  F001         	movff	vfpfcnvrt@convarg,___awdiv@dividend
  3860   001402  C012  F002         	movff	vfpfcnvrt@convarg+1,___awdiv@dividend+1
  3861   001406  0E00               	movlw	0
  3862   001408  6E04               	movwf	(___awdiv@divisor+1)^0,c
  3863   00140A  0E0A               	movlw	10
  3864   00140C  6E03               	movwf	___awdiv@divisor^0,c
  3865   00140E  EC68  F00C         	call	___awdiv	;wreg free
  3866   001412  C001  F011         	movff	?___awdiv,vfpfcnvrt@convarg
  3867   001416  C002  F012         	movff	?___awdiv+1,vfpfcnvrt@convarg+1
  3868   00141A                     
  3869                           ;C:\Program Files\Microchip\xc8\v2.45\pic\sources\c99\common\doprnt.c: 1416:    } while 
      +                          (convarg.sint != 0 && c != 0);
  3870   00141A  5011               	movf	vfpfcnvrt@convarg^0,w,c
  3871   00141C  1012               	iorwf	(vfpfcnvrt@convarg+1)^0,w,c
  3872   00141E  B4D8               	btfsc	status,2,c
  3873   001420  EF14  F00A         	goto	u1371
  3874   001424  EF16  F00A         	goto	u1370
  3875   001428                     u1371:
  3876   001428  EF1E  F00A         	goto	l2391
  3877   00142C                     u1370:
  3878   00142C  5015               	movf	vfpfcnvrt@c^0,w,c
  3879   00142E  A4D8               	btfss	status,2,c
  3880   001430  EF1C  F00A         	goto	u1381
  3881   001434  EF1E  F00A         	goto	u1380
  3882   001438                     u1381:
  3883   001438  EFE7  F009         	goto	l2383
  3884   00143C                     u1380:
  3885   00143C                     l2391:
  3886                           
  3887                           ;C:\Program Files\Microchip\xc8\v2.45\pic\sources\c99\common\doprnt.c: 1417:    if (c !=
      +                           0 && done) {
  3888   00143C  5015               	movf	vfpfcnvrt@c^0,w,c
  3889   00143E  B4D8               	btfsc	status,2,c
  3890   001440  EF24  F00A         	goto	u1391
  3891   001444  EF26  F00A         	goto	u1390
  3892   001448                     u1391:
  3893   001448  EF45  F00A         	goto	l2401
  3894   00144C                     u1390:
  3895   00144C  500F               	movf	vfpfcnvrt@done^0,w,c
  3896   00144E  B4D8               	btfsc	status,2,c
  3897   001450  EF2C  F00A         	goto	u1401
  3898   001454  EF2E  F00A         	goto	u1400
  3899   001458                     u1401:
  3900   001458  EF45  F00A         	goto	l2401
  3901   00145C                     u1400:
  3902   00145C                     
  3903                           ;C:\Program Files\Microchip\xc8\v2.45\pic\sources\c99\common\doprnt.c: 1418:     dbuf[--
      +                          c] = '-';
  3904   00145C  0615               	decf	vfpfcnvrt@c^0,f,c
  3905   00145E  5015               	movf	vfpfcnvrt@c^0,w,c
  3906   001460  0F80               	addlw	low _dbuf
  3907   001462  6ED9               	movwf	fsr2l,c
  3908   001464  6ADA               	clrf	fsr2h,c
  3909   001466  0E2D               	movlw	45
  3910   001468  6EDF               	movwf	indf2,c
  3911   00146A  EF45  F00A         	goto	l2401
  3912   00146E                     l2397:
  3913                           
  3914                           ;C:\Program Files\Microchip\xc8\v2.45\pic\sources\c99\common\doprnt.c: 1424:     fputc(d
      +                          buf[c++], fp);
  3915   00146E  5015               	movf	vfpfcnvrt@c^0,w,c
  3916   001470  0F80               	addlw	low _dbuf
  3917   001472  6ED9               	movwf	fsr2l,c
  3918   001474  6ADA               	clrf	fsr2h,c
  3919   001476  50DF               	movf	indf2,w,c
  3920   001478  6E0E               	movwf	??_vfpfcnvrt^0,c
  3921   00147A  500E               	movf	??_vfpfcnvrt^0,w,c
  3922   00147C  6E01               	movwf	fputc@c^0,c
  3923   00147E  6A02               	clrf	(fputc@c+1)^0,c
  3924   001480  C00B  F003         	movff	vfpfcnvrt@fp,fputc@fp
  3925   001484  EC22  F00D         	call	_fputc	;wreg free
  3926   001488  2A15               	incf	vfpfcnvrt@c^0,f,c
  3927   00148A                     l2401:
  3928                           
  3929                           ;C:\Program Files\Microchip\xc8\v2.45\pic\sources\c99\common\doprnt.c: 1423:    while (c
      +                           != sizeof(dbuf)) {
  3930   00148A  0E20               	movlw	32
  3931   00148C  1815               	xorwf	vfpfcnvrt@c^0,w,c
  3932   00148E  A4D8               	btfss	status,2,c
  3933   001490  EF4C  F00A         	goto	u1411
  3934   001494  EF4E  F00A         	goto	u1410
  3935   001498                     u1411:
  3936   001498  EF37  F00A         	goto	l2397
  3937   00149C                     u1410:
  3938   00149C  EF67  F00A         	goto	l1155
  3939   0014A0                     l2403:
  3940                           
  3941                           ;C:\Program Files\Microchip\xc8\v2.45\pic\sources\c99\common\doprnt.c: 1806:         ++*
      +                          fmt;
  3942   0014A0  500C               	movf	vfpfcnvrt@fmt^0,w,c
  3943   0014A2  6ED9               	movwf	fsr2l,c
  3944   0014A4  6ADA               	clrf	fsr2h,c
  3945   0014A6  2ADF               	incf	indf2,f,c
  3946   0014A8  EF67  F00A         	goto	l1155
  3947   0014AC                     l2407:
  3948                           
  3949                           ;C:\Program Files\Microchip\xc8\v2.45\pic\sources\c99\common\doprnt.c: 1811:     fputc((
      +                          int)(*fmt)[0], fp);
  3950   0014AC  500C               	movf	vfpfcnvrt@fmt^0,w,c
  3951   0014AE  6ED9               	movwf	fsr2l,c
  3952   0014B0  6ADA               	clrf	fsr2h,c
  3953   0014B2  CFDF FFF6          	movff	indf2,tblptrl
  3954   0014B6                     	if	1	;There is more than 1 active tblptr byte
  3955   0014B6  0E10               	movlw	high __smallconst
  3956   0014B8  6EF7               	movwf	tblptrh,c
  3957   0014BA                     	endif
  3958   0014BA                     	if	0	;tblptru may be non-zero
  3959   0014BA                     	endif
  3960   0014BA                     	if	0	;tblptru may be non-zero
  3961   0014BA                     	endif
  3962   0014BA  0008               	tblrd		*
  3963   0014BC  50F5               	movf	tablat,w,c
  3964   0014BE  6E01               	movwf	fputc@c^0,c
  3965   0014C0  6A02               	clrf	(fputc@c+1)^0,c
  3966   0014C2  C00B  F003         	movff	vfpfcnvrt@fp,fputc@fp
  3967   0014C6  EC22  F00D         	call	_fputc	;wreg free
  3968   0014CA  EF50  F00A         	goto	l2403
  3969   0014CE                     l1155:
  3970   0014CE  0012               	return		;funcret
  3971   0014D0                     __end_of_vfpfcnvrt:
  3972                           	callstack 0
  3973                           
  3974 ;; *************** function _fputc *****************
  3975 ;; Defined at:
  3976 ;;		line 8 in file "C:\Program Files\Microchip\xc8\v2.45\pic\sources\c99\common\nf_fputc.c"
  3977 ;; Parameters:    Size  Location     Type
  3978 ;;  c               2    0[COMRAM] int 
  3979 ;;  fp              1    2[COMRAM] PTR struct _IO_FILE
  3980 ;;		 -> sprintf@f(12), 
  3981 ;; Auto vars:     Size  Location     Type
  3982 ;;		None
  3983 ;; Return value:  Size  Location     Type
  3984 ;;                  2    0[COMRAM] int 
  3985 ;; Registers used:
  3986 ;;		wreg, fsr1l, fsr1h, fsr2l, fsr2h, status,2, status,0, cstack
  3987 ;; Tracked objects:
  3988 ;;		On entry : 0/0
  3989 ;;		On exit  : 0/0
  3990 ;;		Unchanged: 0/0
  3991 ;; Data sizes:     COMRAM   BANK0   BANK1   BANK2   BANK3   BANK4   BANK5   BANK6   BANK7   BANK8   BANK9  BANK10  BANK1
      +1  BANK12  BANK13  BANK14  BANK15
  3992 ;;      Params:         3       0       0       0       0       0       0       0       0       0       0       0       
      +0       0       0       0       0
  3993 ;;      Locals:         0       0       0       0       0       0       0       0       0       0       0       0       
      +0       0       0       0       0
  3994 ;;      Temps:          5       0       0       0       0       0       0       0       0       0       0       0       
      +0       0       0       0       0
  3995 ;;      Totals:         8       0       0       0       0       0       0       0       0       0       0       0       
      +0       0       0       0       0
  3996 ;;Total ram usage:        8 bytes
  3997 ;; Hardware stack levels used: 1
  3998 ;; Hardware stack levels required when called: 1
  3999 ;; This function calls:
  4000 ;;		_putch
  4001 ;; This function is called by:
  4002 ;;		_vfpfcnvrt
  4003 ;; This function uses a non-reentrant model
  4004 ;;
  4005                           
  4006                           	psect	text25
  4007   001A44                     __ptext25:
  4008                           	callstack 0
  4009   001A44                     _fputc:
  4010                           	callstack 24
  4011   001A44  5003               	movf	fputc@fp^0,w,c
  4012   001A46  B4D8               	btfsc	status,2,c
  4013   001A48  EF28  F00D         	goto	u1271
  4014   001A4C  EF2A  F00D         	goto	u1270
  4015   001A50                     u1271:
  4016   001A50  EF32  F00D         	goto	l2337
  4017   001A54                     u1270:
  4018   001A54  5003               	movf	fputc@fp^0,w,c
  4019   001A56  A4D8               	btfss	status,2,c
  4020   001A58  EF30  F00D         	goto	u1281
  4021   001A5C  EF32  F00D         	goto	u1280
  4022   001A60                     u1281:
  4023   001A60  EF37  F00D         	goto	l2339
  4024   001A64                     u1280:
  4025   001A64                     l2337:
  4026   001A64  5001               	movf	fputc@c^0,w,c
  4027   001A66  EC06  F011         	call	_putch
  4028   001A6A  EF76  F00D         	goto	l1180
  4029   001A6E                     l2339:
  4030   001A6E  5003               	movf	fputc@fp^0,w,c
  4031   001A70  6ED9               	movwf	fsr2l,c
  4032   001A72  6ADA               	clrf	fsr2h,c
  4033   001A74  0E0A               	movlw	10
  4034   001A76  26D9               	addwf	fsr2l,f,c
  4035   001A78  50DE               	movf	postinc2,w,c
  4036   001A7A  10DE               	iorwf	postinc2,w,c
  4037   001A7C  B4D8               	btfsc	status,2,c
  4038   001A7E  EF43  F00D         	goto	u1291
  4039   001A82  EF45  F00D         	goto	u1290
  4040   001A86                     u1291:
  4041   001A86  EF5E  F00D         	goto	l2343
  4042   001A8A                     u1290:
  4043   001A8A  5003               	movf	fputc@fp^0,w,c
  4044   001A8C  6ED9               	movwf	fsr2l,c
  4045   001A8E  6ADA               	clrf	fsr2h,c
  4046   001A90  0E0A               	movlw	10
  4047   001A92  26D9               	addwf	fsr2l,f,c
  4048   001A94  5003               	movf	fputc@fp^0,w,c
  4049   001A96  6EE1               	movwf	fsr1l,c
  4050   001A98  6AE2               	clrf	fsr1h,c
  4051   001A9A  0E03               	movlw	3
  4052   001A9C  26E1               	addwf	fsr1l,f,c
  4053   001A9E  50DE               	movf	postinc2,w,c
  4054   001AA0  5CE6               	subwf	postinc1,w,c
  4055   001AA2  50E6               	movf	postinc1,w,c
  4056   001AA4  0A80               	xorlw	128
  4057   001AA6  6E08               	movwf	(??_fputc+4)^0,c
  4058   001AA8  50DE               	movf	postinc2,w,c
  4059   001AAA  0A80               	xorlw	128
  4060   001AAC  5808               	subwfb	(??_fputc+4)^0,w,c
  4061   001AAE  B0D8               	btfsc	status,0,c
  4062   001AB0  EF5C  F00D         	goto	u1301
  4063   001AB4  EF5E  F00D         	goto	u1300
  4064   001AB8                     u1301:
  4065   001AB8  EF76  F00D         	goto	l1180
  4066   001ABC                     u1300:
  4067   001ABC                     l2343:
  4068   001ABC  5003               	movf	fputc@fp^0,w,c
  4069   001ABE  6ED9               	movwf	fsr2l,c
  4070   001AC0  6ADA               	clrf	fsr2h,c
  4071   001AC2  0E03               	movlw	3
  4072   001AC4  26D9               	addwf	fsr2l,f,c
  4073   001AC6  50DF               	movf	indf2,w,c
  4074   001AC8  6E04               	movwf	??_fputc^0,c
  4075   001ACA  5003               	movf	fputc@fp^0,w,c
  4076   001ACC  6ED9               	movwf	fsr2l,c
  4077   001ACE  6ADA               	clrf	fsr2h,c
  4078   001AD0  50DF               	movf	indf2,w,c
  4079   001AD2  2404               	addwf	??_fputc^0,w,c
  4080   001AD4  6ED9               	movwf	fsr2l,c
  4081   001AD6  6ADA               	clrf	fsr2h,c
  4082   001AD8  C001  FFDF         	movff	fputc@c,indf2
  4083   001ADC  5003               	movf	fputc@fp^0,w,c
  4084   001ADE  6ED9               	movwf	fsr2l,c
  4085   001AE0  6ADA               	clrf	fsr2h,c
  4086   001AE2  0E03               	movlw	3
  4087   001AE4  26D9               	addwf	fsr2l,f,c
  4088   001AE6  2ADE               	incf	postinc2,f,c
  4089   001AE8  0E00               	movlw	0
  4090   001AEA  22DD               	addwfc	postdec2,f,c
  4091   001AEC                     l1180:
  4092   001AEC  0012               	return		;funcret
  4093   001AEE                     __end_of_fputc:
  4094                           	callstack 0
  4095                           
  4096 ;; *************** function _putch *****************
  4097 ;; Defined at:
  4098 ;;		line 7 in file "C:\Program Files\Microchip\xc8\v2.45\pic\sources\c99\common\putch.c"
  4099 ;; Parameters:    Size  Location     Type
  4100 ;;  c               1    wreg     unsigned char 
  4101 ;; Auto vars:     Size  Location     Type
  4102 ;;  c               1    0[COMRAM] unsigned char 
  4103 ;; Return value:  Size  Location     Type
  4104 ;;                  1    wreg      void 
  4105 ;; Registers used:
  4106 ;;		wreg
  4107 ;; Tracked objects:
  4108 ;;		On entry : 0/0
  4109 ;;		On exit  : 0/0
  4110 ;;		Unchanged: 0/0
  4111 ;; Data sizes:     COMRAM   BANK0   BANK1   BANK2   BANK3   BANK4   BANK5   BANK6   BANK7   BANK8   BANK9  BANK10  BANK1
      +1  BANK12  BANK13  BANK14  BANK15
  4112 ;;      Params:         0       0       0       0       0       0       0       0       0       0       0       0       
      +0       0       0       0       0
  4113 ;;      Locals:         0       0       0       0       0       0       0       0       0       0       0       0       
      +0       0       0       0       0
  4114 ;;      Temps:          0       0       0       0       0       0       0       0       0       0       0       0       
      +0       0       0       0       0
  4115 ;;      Totals:         0       0       0       0       0       0       0       0       0       0       0       0       
      +0       0       0       0       0
  4116 ;;Total ram usage:        0 bytes
  4117 ;; Hardware stack levels used: 1
  4118 ;; This function calls:
  4119 ;;		Nothing
  4120 ;; This function is called by:
  4121 ;;		_fputc
  4122 ;; This function uses a non-reentrant model
  4123 ;;
  4124                           
  4125                           	psect	text26
  4126   00220C                     __ptext26:
  4127                           	callstack 0
  4128   00220C                     _putch:
  4129                           	callstack 24
  4130   00220C  0012               	return		;funcret
  4131   00220E                     __end_of_putch:
  4132                           	callstack 0
  4133                           
  4134 ;; *************** function _abs *****************
  4135 ;; Defined at:
  4136 ;;		line 1 in file "C:\Program Files\Microchip\xc8\v2.45\pic\sources\c99\common\abs.c"
  4137 ;; Parameters:    Size  Location     Type
  4138 ;;  a               2    6[COMRAM] int 
  4139 ;; Auto vars:     Size  Location     Type
  4140 ;;		None
  4141 ;; Return value:  Size  Location     Type
  4142 ;;                  2    6[COMRAM] int 
  4143 ;; Registers used:
  4144 ;;		wreg, status,2, status,0
  4145 ;; Tracked objects:
  4146 ;;		On entry : 0/0
  4147 ;;		On exit  : 0/0
  4148 ;;		Unchanged: 0/0
  4149 ;; Data sizes:     COMRAM   BANK0   BANK1   BANK2   BANK3   BANK4   BANK5   BANK6   BANK7   BANK8   BANK9  BANK10  BANK1
      +1  BANK12  BANK13  BANK14  BANK15
  4150 ;;      Params:         2       0       0       0       0       0       0       0       0       0       0       0       
      +0       0       0       0       0
  4151 ;;      Locals:         0       0       0       0       0       0       0       0       0       0       0       0       
      +0       0       0       0       0
  4152 ;;      Temps:          2       0       0       0       0       0       0       0       0       0       0       0       
      +0       0       0       0       0
  4153 ;;      Totals:         4       0       0       0       0       0       0       0       0       0       0       0       
      +0       0       0       0       0
  4154 ;;Total ram usage:        4 bytes
  4155 ;; Hardware stack levels used: 1
  4156 ;; This function calls:
  4157 ;;		Nothing
  4158 ;; This function is called by:
  4159 ;;		_vfpfcnvrt
  4160 ;; This function uses a non-reentrant model
  4161 ;;
  4162                           
  4163                           	psect	text27
  4164   002140                     __ptext27:
  4165                           	callstack 0
  4166   002140                     _abs:
  4167                           	callstack 25
  4168   002140  BE08               	btfsc	(abs@a+1)^0,7,c
  4169   002142  EFA5  F010         	goto	u1311
  4170   002146  EFA7  F010         	goto	u1310
  4171   00214A                     u1311:
  4172   00214A  EFAD  F010         	goto	l1165
  4173   00214E                     u1310:
  4174   00214E  C007  F007         	movff	abs@a,?_abs
  4175   002152  C008  F008         	movff	abs@a+1,?_abs+1
  4176   002156  EFB9  F010         	goto	l1168
  4177   00215A                     l1165:
  4178   00215A  C007  F009         	movff	abs@a,??_abs
  4179   00215E  C008  F00A         	movff	abs@a+1,??_abs+1
  4180   002162  1E09               	comf	??_abs^0,f,c
  4181   002164  1E0A               	comf	(??_abs+1)^0,f,c
  4182   002166  4A09               	infsnz	??_abs^0,f,c
  4183   002168  2A0A               	incf	(??_abs+1)^0,f,c
  4184   00216A  C009  F007         	movff	??_abs,?_abs
  4185   00216E  C00A  F008         	movff	??_abs+1,?_abs+1
  4186   002172                     l1168:
  4187   002172  0012               	return		;funcret
  4188   002174                     __end_of_abs:
  4189                           	callstack 0
  4190                           
  4191 ;; *************** function ___awmod *****************
  4192 ;; Defined at:
  4193 ;;		line 7 in file "C:\Program Files\Microchip\xc8\v2.45\pic\sources\c99\common\awmod.c"
  4194 ;; Parameters:    Size  Location     Type
  4195 ;;  dividend        2    0[COMRAM] int 
  4196 ;;  divisor         2    2[COMRAM] int 
  4197 ;; Auto vars:     Size  Location     Type
  4198 ;;  sign            1    5[COMRAM] unsigned char 
  4199 ;;  counter         1    4[COMRAM] unsigned char 
  4200 ;; Return value:  Size  Location     Type
  4201 ;;                  2    0[COMRAM] int 
  4202 ;; Registers used:
  4203 ;;		wreg, status,2, status,0
  4204 ;; Tracked objects:
  4205 ;;		On entry : 0/0
  4206 ;;		On exit  : 0/0
  4207 ;;		Unchanged: 0/0
  4208 ;; Data sizes:     COMRAM   BANK0   BANK1   BANK2   BANK3   BANK4   BANK5   BANK6   BANK7   BANK8   BANK9  BANK10  BANK1
      +1  BANK12  BANK13  BANK14  BANK15
  4209 ;;      Params:         4       0       0       0       0       0       0       0       0       0       0       0       
      +0       0       0       0       0
  4210 ;;      Locals:         2       0       0       0       0       0       0       0       0       0       0       0       
      +0       0       0       0       0
  4211 ;;      Temps:          0       0       0       0       0       0       0       0       0       0       0       0       
      +0       0       0       0       0
  4212 ;;      Totals:         6       0       0       0       0       0       0       0       0       0       0       0       
      +0       0       0       0       0
  4213 ;;Total ram usage:        6 bytes
  4214 ;; Hardware stack levels used: 1
  4215 ;; This function calls:
  4216 ;;		Nothing
  4217 ;; This function is called by:
  4218 ;;		_vfpfcnvrt
  4219 ;; This function uses a non-reentrant model
  4220 ;;
  4221                           
  4222                           	psect	text28
  4223   001994                     __ptext28:
  4224                           	callstack 0
  4225   001994                     ___awmod:
  4226                           	callstack 25
  4227   001994  0E00               	movlw	0
  4228   001996  6E06               	movwf	___awmod@sign^0,c
  4229   001998  BE02               	btfsc	(___awmod@dividend+1)^0,7,c
  4230   00199A  EFD3  F00C         	goto	u1210
  4231   00199E  EFD1  F00C         	goto	u1211
  4232   0019A2                     u1211:
  4233   0019A2  EFD9  F00C         	goto	l2305
  4234   0019A6                     u1210:
  4235   0019A6  6C01               	negf	___awmod@dividend^0,c
  4236   0019A8  1E02               	comf	(___awmod@dividend+1)^0,f,c
  4237   0019AA  B0D8               	btfsc	status,0,c
  4238   0019AC  2A02               	incf	(___awmod@dividend+1)^0,f,c
  4239   0019AE  0E01               	movlw	1
  4240   0019B0  6E06               	movwf	___awmod@sign^0,c
  4241   0019B2                     l2305:
  4242   0019B2  BE04               	btfsc	(___awmod@divisor+1)^0,7,c
  4243   0019B4  EFE0  F00C         	goto	u1220
  4244   0019B8  EFDE  F00C         	goto	u1221
  4245   0019BC                     u1221:
  4246   0019BC  EFE4  F00C         	goto	l2309
  4247   0019C0                     u1220:
  4248   0019C0  6C03               	negf	___awmod@divisor^0,c
  4249   0019C2  1E04               	comf	(___awmod@divisor+1)^0,f,c
  4250   0019C4  B0D8               	btfsc	status,0,c
  4251   0019C6  2A04               	incf	(___awmod@divisor+1)^0,f,c
  4252   0019C8                     l2309:
  4253   0019C8  5003               	movf	___awmod@divisor^0,w,c
  4254   0019CA  1004               	iorwf	(___awmod@divisor+1)^0,w,c
  4255   0019CC  B4D8               	btfsc	status,2,c
  4256   0019CE  EFEB  F00C         	goto	u1231
  4257   0019D2  EFED  F00C         	goto	u1230
  4258   0019D6                     u1231:
  4259   0019D6  EF11  F00D         	goto	l2325
  4260   0019DA                     u1230:
  4261   0019DA  0E01               	movlw	1
  4262   0019DC  6E05               	movwf	___awmod@counter^0,c
  4263   0019DE  EFF5  F00C         	goto	l2315
  4264   0019E2                     l2313:
  4265   0019E2  90D8               	bcf	status,0,c
  4266   0019E4  3603               	rlcf	___awmod@divisor^0,f,c
  4267   0019E6  3604               	rlcf	(___awmod@divisor+1)^0,f,c
  4268   0019E8  2A05               	incf	___awmod@counter^0,f,c
  4269   0019EA                     l2315:
  4270   0019EA  AE04               	btfss	(___awmod@divisor+1)^0,7,c
  4271   0019EC  EFFA  F00C         	goto	u1241
  4272   0019F0  EFFC  F00C         	goto	u1240
  4273   0019F4                     u1241:
  4274   0019F4  EFF1  F00C         	goto	l2313
  4275   0019F8                     u1240:
  4276   0019F8                     l2317:
  4277   0019F8  5003               	movf	___awmod@divisor^0,w,c
  4278   0019FA  5C01               	subwf	___awmod@dividend^0,w,c
  4279   0019FC  5004               	movf	(___awmod@divisor+1)^0,w,c
  4280   0019FE  5802               	subwfb	(___awmod@dividend+1)^0,w,c
  4281   001A00  A0D8               	btfss	status,0,c
  4282   001A02  EF05  F00D         	goto	u1251
  4283   001A06  EF07  F00D         	goto	u1250
  4284   001A0A                     u1251:
  4285   001A0A  EF0B  F00D         	goto	l2321
  4286   001A0E                     u1250:
  4287   001A0E  5003               	movf	___awmod@divisor^0,w,c
  4288   001A10  5E01               	subwf	___awmod@dividend^0,f,c
  4289   001A12  5004               	movf	(___awmod@divisor+1)^0,w,c
  4290   001A14  5A02               	subwfb	(___awmod@dividend+1)^0,f,c
  4291   001A16                     l2321:
  4292   001A16  90D8               	bcf	status,0,c
  4293   001A18  3204               	rrcf	(___awmod@divisor+1)^0,f,c
  4294   001A1A  3203               	rrcf	___awmod@divisor^0,f,c
  4295   001A1C  2E05               	decfsz	___awmod@counter^0,f,c
  4296   001A1E  EFFC  F00C         	goto	l2317
  4297   001A22                     l2325:
  4298   001A22  5006               	movf	___awmod@sign^0,w,c
  4299   001A24  B4D8               	btfsc	status,2,c
  4300   001A26  EF17  F00D         	goto	u1261
  4301   001A2A  EF19  F00D         	goto	u1260
  4302   001A2E                     u1261:
  4303   001A2E  EF1D  F00D         	goto	l2329
  4304   001A32                     u1260:
  4305   001A32  6C01               	negf	___awmod@dividend^0,c
  4306   001A34  1E02               	comf	(___awmod@dividend+1)^0,f,c
  4307   001A36  B0D8               	btfsc	status,0,c
  4308   001A38  2A02               	incf	(___awmod@dividend+1)^0,f,c
  4309   001A3A                     l2329:
  4310   001A3A  C001  F001         	movff	___awmod@dividend,?___awmod
  4311   001A3E  C002  F002         	movff	___awmod@dividend+1,?___awmod+1
  4312   001A42  0012               	return		;funcret
  4313   001A44                     __end_of___awmod:
  4314                           	callstack 0
  4315                           
  4316 ;; *************** function ___awdiv *****************
  4317 ;; Defined at:
  4318 ;;		line 7 in file "C:\Program Files\Microchip\xc8\v2.45\pic\sources\c99\common\awdiv.c"
  4319 ;; Parameters:    Size  Location     Type
  4320 ;;  dividend        2    0[COMRAM] int 
  4321 ;;  divisor         2    2[COMRAM] int 
  4322 ;; Auto vars:     Size  Location     Type
  4323 ;;  quotient        2    6[COMRAM] int 
  4324 ;;  sign            1    5[COMRAM] unsigned char 
  4325 ;;  counter         1    4[COMRAM] unsigned char 
  4326 ;; Return value:  Size  Location     Type
  4327 ;;                  2    0[COMRAM] int 
  4328 ;; Registers used:
  4329 ;;		wreg, status,2, status,0
  4330 ;; Tracked objects:
  4331 ;;		On entry : 0/0
  4332 ;;		On exit  : 0/0
  4333 ;;		Unchanged: 0/0
  4334 ;; Data sizes:     COMRAM   BANK0   BANK1   BANK2   BANK3   BANK4   BANK5   BANK6   BANK7   BANK8   BANK9  BANK10  BANK1
      +1  BANK12  BANK13  BANK14  BANK15
  4335 ;;      Params:         4       0       0       0       0       0       0       0       0       0       0       0       
      +0       0       0       0       0
  4336 ;;      Locals:         4       0       0       0       0       0       0       0       0       0       0       0       
      +0       0       0       0       0
  4337 ;;      Temps:          0       0       0       0       0       0       0       0       0       0       0       0       
      +0       0       0       0       0
  4338 ;;      Totals:         8       0       0       0       0       0       0       0       0       0       0       0       
      +0       0       0       0       0
  4339 ;;Total ram usage:        8 bytes
  4340 ;; Hardware stack levels used: 1
  4341 ;; This function calls:
  4342 ;;		Nothing
  4343 ;; This function is called by:
  4344 ;;		_vfpfcnvrt
  4345 ;; This function uses a non-reentrant model
  4346 ;;
  4347                           
  4348                           	psect	text29
  4349   0018D0                     __ptext29:
  4350                           	callstack 0
  4351   0018D0                     ___awdiv:
  4352                           	callstack 25
  4353   0018D0  0E00               	movlw	0
  4354   0018D2  6E06               	movwf	___awdiv@sign^0,c
  4355   0018D4  BE04               	btfsc	(___awdiv@divisor+1)^0,7,c
  4356   0018D6  EF71  F00C         	goto	u1150
  4357   0018DA  EF6F  F00C         	goto	u1151
  4358   0018DE                     u1151:
  4359   0018DE  EF77  F00C         	goto	l2261
  4360   0018E2                     u1150:
  4361   0018E2  6C03               	negf	___awdiv@divisor^0,c
  4362   0018E4  1E04               	comf	(___awdiv@divisor+1)^0,f,c
  4363   0018E6  B0D8               	btfsc	status,0,c
  4364   0018E8  2A04               	incf	(___awdiv@divisor+1)^0,f,c
  4365   0018EA  0E01               	movlw	1
  4366   0018EC  6E06               	movwf	___awdiv@sign^0,c
  4367   0018EE                     l2261:
  4368   0018EE  BE02               	btfsc	(___awdiv@dividend+1)^0,7,c
  4369   0018F0  EF7E  F00C         	goto	u1160
  4370   0018F4  EF7C  F00C         	goto	u1161
  4371   0018F8                     u1161:
  4372   0018F8  EF84  F00C         	goto	l2267
  4373   0018FC                     u1160:
  4374   0018FC  6C01               	negf	___awdiv@dividend^0,c
  4375   0018FE  1E02               	comf	(___awdiv@dividend+1)^0,f,c
  4376   001900  B0D8               	btfsc	status,0,c
  4377   001902  2A02               	incf	(___awdiv@dividend+1)^0,f,c
  4378   001904  0E01               	movlw	1
  4379   001906  1A06               	xorwf	___awdiv@sign^0,f,c
  4380   001908                     l2267:
  4381   001908  0E00               	movlw	0
  4382   00190A  6E08               	movwf	(___awdiv@quotient+1)^0,c
  4383   00190C  0E00               	movlw	0
  4384   00190E  6E07               	movwf	___awdiv@quotient^0,c
  4385   001910  5003               	movf	___awdiv@divisor^0,w,c
  4386   001912  1004               	iorwf	(___awdiv@divisor+1)^0,w,c
  4387   001914  B4D8               	btfsc	status,2,c
  4388   001916  EF8F  F00C         	goto	u1171
  4389   00191A  EF91  F00C         	goto	u1170
  4390   00191E                     u1171:
  4391   00191E  EFB9  F00C         	goto	l2289
  4392   001922                     u1170:
  4393   001922  0E01               	movlw	1
  4394   001924  6E05               	movwf	___awdiv@counter^0,c
  4395   001926  EF99  F00C         	goto	l2275
  4396   00192A                     l2273:
  4397   00192A  90D8               	bcf	status,0,c
  4398   00192C  3603               	rlcf	___awdiv@divisor^0,f,c
  4399   00192E  3604               	rlcf	(___awdiv@divisor+1)^0,f,c
  4400   001930  2A05               	incf	___awdiv@counter^0,f,c
  4401   001932                     l2275:
  4402   001932  AE04               	btfss	(___awdiv@divisor+1)^0,7,c
  4403   001934  EF9E  F00C         	goto	u1181
  4404   001938  EFA0  F00C         	goto	u1180
  4405   00193C                     u1181:
  4406   00193C  EF95  F00C         	goto	l2273
  4407   001940                     u1180:
  4408   001940                     l2277:
  4409   001940  90D8               	bcf	status,0,c
  4410   001942  3607               	rlcf	___awdiv@quotient^0,f,c
  4411   001944  3608               	rlcf	(___awdiv@quotient+1)^0,f,c
  4412   001946  5003               	movf	___awdiv@divisor^0,w,c
  4413   001948  5C01               	subwf	___awdiv@dividend^0,w,c
  4414   00194A  5004               	movf	(___awdiv@divisor+1)^0,w,c
  4415   00194C  5802               	subwfb	(___awdiv@dividend+1)^0,w,c
  4416   00194E  A0D8               	btfss	status,0,c
  4417   001950  EFAC  F00C         	goto	u1191
  4418   001954  EFAE  F00C         	goto	u1190
  4419   001958                     u1191:
  4420   001958  EFB3  F00C         	goto	l2285
  4421   00195C                     u1190:
  4422   00195C  5003               	movf	___awdiv@divisor^0,w,c
  4423   00195E  5E01               	subwf	___awdiv@dividend^0,f,c
  4424   001960  5004               	movf	(___awdiv@divisor+1)^0,w,c
  4425   001962  5A02               	subwfb	(___awdiv@dividend+1)^0,f,c
  4426   001964  8007               	bsf	___awdiv@quotient^0,0,c
  4427   001966                     l2285:
  4428   001966  90D8               	bcf	status,0,c
  4429   001968  3204               	rrcf	(___awdiv@divisor+1)^0,f,c
  4430   00196A  3203               	rrcf	___awdiv@divisor^0,f,c
  4431   00196C  2E05               	decfsz	___awdiv@counter^0,f,c
  4432   00196E  EFA0  F00C         	goto	l2277
  4433   001972                     l2289:
  4434   001972  5006               	movf	___awdiv@sign^0,w,c
  4435   001974  B4D8               	btfsc	status,2,c
  4436   001976  EFBF  F00C         	goto	u1201
  4437   00197A  EFC1  F00C         	goto	u1200
  4438   00197E                     u1201:
  4439   00197E  EFC5  F00C         	goto	l2293
  4440   001982                     u1200:
  4441   001982  6C07               	negf	___awdiv@quotient^0,c
  4442   001984  1E08               	comf	(___awdiv@quotient+1)^0,f,c
  4443   001986  B0D8               	btfsc	status,0,c
  4444   001988  2A08               	incf	(___awdiv@quotient+1)^0,f,c
  4445   00198A                     l2293:
  4446   00198A  C007  F001         	movff	___awdiv@quotient,?___awdiv
  4447   00198E  C008  F002         	movff	___awdiv@quotient+1,?___awdiv+1
  4448   001992  0012               	return		;funcret
  4449   001994                     __end_of___awdiv:
  4450                           	callstack 0
  4451                           
  4452 ;; *************** function _memset *****************
  4453 ;; Defined at:
  4454 ;;		line 3 in file "C:\Program Files\Microchip\xc8\v2.45\pic\sources\c99\common\memset.c"
  4455 ;; Parameters:    Size  Location     Type
  4456 ;;  dest            1    0[COMRAM] PTR void 
  4457 ;;		 -> str(2), 
  4458 ;;  c               2    1[COMRAM] int 
  4459 ;;  n               2    3[COMRAM] unsigned int 
  4460 ;; Auto vars:     Size  Location     Type
  4461 ;;  p               1    5[COMRAM] PTR unsigned char 
  4462 ;;		 -> str(2), 
  4463 ;; Return value:  Size  Location     Type
  4464 ;;                  1    wreg      PTR void 
  4465 ;; Registers used:
  4466 ;;		wreg, fsr2l, fsr2h, status,2, status,0
  4467 ;; Tracked objects:
  4468 ;;		On entry : 0/0
  4469 ;;		On exit  : 0/0
  4470 ;;		Unchanged: 0/0
  4471 ;; Data sizes:     COMRAM   BANK0   BANK1   BANK2   BANK3   BANK4   BANK5   BANK6   BANK7   BANK8   BANK9  BANK10  BANK1
      +1  BANK12  BANK13  BANK14  BANK15
  4472 ;;      Params:         5       0       0       0       0       0       0       0       0       0       0       0       
      +0       0       0       0       0
  4473 ;;      Locals:         1       0       0       0       0       0       0       0       0       0       0       0       
      +0       0       0       0       0
  4474 ;;      Temps:          0       0       0       0       0       0       0       0       0       0       0       0       
      +0       0       0       0       0
  4475 ;;      Totals:         6       0       0       0       0       0       0       0       0       0       0       0       
      +0       0       0       0       0
  4476 ;;Total ram usage:        6 bytes
  4477 ;; Hardware stack levels used: 1
  4478 ;; This function calls:
  4479 ;;		Nothing
  4480 ;; This function is called by:
  4481 ;;		_convert_int_to_string
  4482 ;;		_convert_byte_to_string
  4483 ;;		_convert_short_to_string
  4484 ;; This function uses a non-reentrant model
  4485 ;;
  4486                           
  4487                           	psect	text30
  4488   0021A4                     __ptext30:
  4489                           	callstack 0
  4490   0021A4                     _memset:
  4491                           	callstack 28
  4492   0021A4  C001  F006         	movff	memset@dest,memset@p
  4493   0021A8  EFDC  F010         	goto	l2547
  4494   0021AC                     l2543:
  4495   0021AC  5006               	movf	memset@p^0,w,c
  4496   0021AE  6ED9               	movwf	fsr2l,c
  4497   0021B0  6ADA               	clrf	fsr2h,c
  4498   0021B2  C002  FFDF         	movff	memset@c,indf2
  4499   0021B6  2A06               	incf	memset@p^0,f,c
  4500   0021B8                     l2547:
  4501   0021B8  0604               	decf	memset@n^0,f,c
  4502   0021BA  A0D8               	btfss	status,0,c
  4503   0021BC  0605               	decf	(memset@n+1)^0,f,c
  4504   0021BE  2804               	incf	memset@n^0,w,c
  4505   0021C0  E106               	bnz	u1591
  4506   0021C2  2805               	incf	(memset@n+1)^0,w,c
  4507   0021C4  A4D8               	btfss	status,2,c
  4508   0021C6  EFE7  F010         	goto	u1591
  4509   0021CA  EFE9  F010         	goto	u1590
  4510   0021CE                     u1591:
  4511   0021CE  EFD6  F010         	goto	l2543
  4512   0021D2                     u1590:
  4513   0021D2  0012               	return		;funcret
  4514   0021D4                     __end_of_memset:
  4515                           	callstack 0
  4516                           
  4517                           	psect	rparam
  4518   000000                     tosu	equ	0xFFF
  4519                           tosh	equ	0xFFE
  4520                           tosl	equ	0xFFD
  4521                           stkptr	equ	0xFFC
  4522                           pclatu	equ	0xFFB
  4523                           pclath	equ	0xFFA
  4524                           pcl	equ	0xFF9
  4525                           tblptru	equ	0xFF8
  4526                           tblptrh	equ	0xFF7
  4527                           tblptrl	equ	0xFF6
  4528                           tablat	equ	0xFF5
  4529                           prodh	equ	0xFF4
  4530                           prodl	equ	0xFF3
  4531                           indf0	equ	0xFEF
  4532                           postinc0	equ	0xFEE
  4533                           postdec0	equ	0xFED
  4534                           preinc0	equ	0xFEC
  4535                           plusw0	equ	0xFEB
  4536                           fsr0h	equ	0xFEA
  4537                           fsr0l	equ	0xFE9
  4538                           wreg	equ	0xFE8
  4539                           indf1	equ	0xFE7
  4540                           postinc1	equ	0xFE6
  4541                           postdec1	equ	0xFE5
  4542                           preinc1	equ	0xFE4
  4543                           plusw1	equ	0xFE3
  4544                           fsr1h	equ	0xFE2
  4545                           fsr1l	equ	0xFE1
  4546                           bsr	equ	0xFE0
  4547                           indf2	equ	0xFDF
  4548                           postinc2	equ	0xFDE
  4549                           postdec2	equ	0xFDD
  4550                           preinc2	equ	0xFDC
  4551                           plusw2	equ	0xFDB
  4552                           fsr2h	equ	0xFDA
  4553                           fsr2l	equ	0xFD9
  4554                           status	equ	0xFD8

Data Sizes:
    Strings     3
    Constant    16
    Data        48
    BSS         54
    Persistent  2
    Stack       0

Auto Spaces:
    Space          Size  Autos    Used
    COMRAM          127     51     123
    BANK0           128      0      32
    BANK1           256      0       0
    BANK2           256      0       0
    BANK3           256      0       0
    BANK4           256      0       0
    BANK5           256      0       0
    BANK6           256      0       0
    BANK7           256      0       0
    BANK8           256      0       0
    BANK9           256      0       0
    BANK10          256      0       0
    BANK11          256      0       0
    BANK12          256      0       0
    BANK13          256      0       0
    BANK14          256      0       0
    BANK15          128      0       0

Pointer List with Targets:

    convert_int_to_string@str	PTR unsigned char  size(1) Largest target is 2
		 -> str(COMRAM[2]), 

    f$.$buffer	PTR unsigned char  size(2) Largest target is 0

    f$.$source	PTR const unsigned char  size(2) Largest target is 0

    fputc@fp	PTR struct _IO_FILE size(1) Largest target is 12
		 -> sprintf@f(COMRAM[12]), 

    fputc@fp$.$buffer	PTR unsigned char  size(2) Largest target is 0

    fputc@fp$.$source	PTR const unsigned char  size(2) Largest target is 0

    gpio_pin__initialize@_pin_config	PTR const struct . size(1) Largest target is 10
		 -> key_pad(COMRAM[8]), key_pad$keypad_row_pins(COMRAM[4]), lcd_2(COMRAM[10]), lcd_2$lcd_data(COMRAM[8]), 

    gpio_pin_direction_initialize@_pin_config	PTR const struct . size(1) Largest target is 10
		 -> key_pad(COMRAM[8]), key_pad$keypad_column_pins(COMRAM[4]), key_pad$keypad_row_pins(COMRAM[4]), lcd_2(COMRAM[10]), 
		 -> lcd_2$lcd_data(COMRAM[8]), 

    gpio_pin_read_logic@_pin_config	PTR const struct . size(1) Largest target is 8
		 -> key_pad(COMRAM[8]), key_pad$keypad_column_pins(COMRAM[4]), 

    gpio_pin_read_logic@logic	PTR enum E2978 size(1) Largest target is 1
		 -> keypad_get_value@column_logic(COMRAM[1]), 

    gpio_pin_write_logic@_pin_config	PTR const struct . size(1) Largest target is 10
		 -> key_pad(COMRAM[8]), key_pad$keypad_row_pins(COMRAM[4]), lcd_2(COMRAM[10]), lcd_2$lcd_data(COMRAM[8]), 

    keypad_get_value@_keypad_obj	PTR const struct . size(1) Largest target is 8
		 -> key_pad(COMRAM[8]), 

    keypad_get_value@value	PTR unsigned char  size(1) Largest target is 1
		 -> assignment_operator(COMRAM[1]), num1_digit1(COMRAM[1]), num1_digit2(COMRAM[1]), num2_digit1(COMRAM[1]), 
		 -> num2_digit2(COMRAM[1]), off(COMRAM[1]), operator(COMRAM[1]), 

    keypad_initialize@_keypad_obj	PTR const struct . size(1) Largest target is 8
		 -> key_pad(COMRAM[8]), 

    lat_reg	PTR volatile unsigned char [5] size(2) Largest target is 1
		 -> LATA(BITBIGSFRllll[1]), LATB(BITBIGSFRlllh[1]), LATC(BITBIGSFRlllh[1]), LATD(BITBIGSFRlllh[1]), 
		 -> LATE(BITBIGSFRlllh[1]), 

    lcd_8bit_initialize@lcd	PTR const struct . size(1) Largest target is 10
		 -> lcd_2(COMRAM[10]), 

    lcd_8bit_send_char_data@lcd	PTR const struct . size(1) Largest target is 10
		 -> lcd_2(COMRAM[10]), 

    lcd_8bit_send_char_data_pos@lcd	PTR const struct . size(1) Largest target is 10
		 -> lcd_2(COMRAM[10]), 

    lcd_8bit_send_command@lcd	PTR const struct . size(1) Largest target is 10
		 -> lcd_2(COMRAM[10]), 

    lcd_8bit_send_string@lcd	PTR const struct . size(1) Largest target is 10
		 -> lcd_2(COMRAM[10]), 

    lcd_8bit_send_string@str	PTR unsigned char  size(1) Largest target is 2
		 -> str(COMRAM[2]), 

    lcd_8bit_send_string_pos@lcd	PTR const struct . size(1) Largest target is 10
		 -> lcd_2(COMRAM[10]), 

    lcd_8bit_send_string_pos@str	PTR unsigned char  size(1) Largest target is 2
		 -> str(COMRAM[2]), 

    lcd_8bits_set_cursor@lcd	PTR const struct . size(1) Largest target is 10
		 -> lcd_2(COMRAM[10]), 

    lcd_8bits_sned_enable_signal@lcd	PTR const struct . size(1) Largest target is 10
		 -> lcd_2(COMRAM[10]), 

    memset@dest	PTR void  size(1) Largest target is 2
		 -> str(COMRAM[2]), 

    memset@p	PTR unsigned char  size(1) Largest target is 2
		 -> str(COMRAM[2]), 

    port_reg	PTR volatile unsigned char [5] size(2) Largest target is 1
		 -> PORTA(BITBIGSFRllll[1]), PORTB(BITBIGSFRllll[1]), PORTC(BITBIGSFRllll[1]), PORTD(BITBIGSFRllll[1]), 
		 -> PORTE(BITBIGSFRllll[1]), 

    S1138$buffer	PTR unsigned char  size(2) Largest target is 0

    S1138$source	PTR const unsigned char  size(2) Largest target is 0

    sp__memset	PTR void  size(1) Largest target is 2
		 -> str(COMRAM[2]), 

    sprintf@ap	PTR void [1] size(1) Largest target is 2
		 -> ?_sprintf(COMRAM[2]), 

    sprintf@fmt	PTR const unsigned char  size(1) Largest target is 3
		 -> STR_1(CODE[3]), STR_2(CODE[3]), STR_3(CODE[3]), 

    sprintf@s	PTR unsigned char  size(1) Largest target is 6
		 -> convert_short_to_string@Temp_String(COMRAM[6]), str(COMRAM[2]), 

    tris_reg	PTR volatile unsigned char [5] size(2) Largest target is 1
		 -> TRISA(BITBIGSFRllll[1]), TRISB(BITBIGSFRllh[1]), TRISC(BITBIGSFRllh[1]), TRISD(BITBIGSFRllh[1]), 
		 -> TRISE(BITBIGSFRllh[1]), 

    vfpfcnvrt@ap	PTR PTR void  size(1) Largest target is 1
		 -> sprintf@ap(COMRAM[1]), 

    vfpfcnvrt@cp	PTR unsigned char  size(1) Largest target is 3
		 -> STR_1(CODE[3]), STR_2(CODE[3]), STR_3(CODE[3]), 

    vfpfcnvrt@fmt	PTR PTR unsigned char  size(1) Largest target is 1
		 -> vfprintf@cfmt(COMRAM[1]), 

    vfpfcnvrt@fp	PTR struct _IO_FILE size(1) Largest target is 12
		 -> sprintf@f(COMRAM[12]), 

    vfprintf@ap	PTR PTR void  size(1) Largest target is 1
		 -> sprintf@ap(COMRAM[1]), 

    vfprintf@cfmt	PTR unsigned char  size(1) Largest target is 3
		 -> STR_1(CODE[3]), STR_2(CODE[3]), STR_3(CODE[3]), 

    vfprintf@fmt	PTR const unsigned char  size(1) Largest target is 3
		 -> STR_1(CODE[3]), STR_2(CODE[3]), STR_3(CODE[3]), 

    vfprintf@fp	PTR struct _IO_FILE size(1) Largest target is 12
		 -> sprintf@f(COMRAM[12]), 


Critical Paths under _main in COMRAM

    _main->_Div_operation
    _lcd_8bit_send_char_data_pos->_lcd_8bits_set_cursor
    _keypad_get_value->_gpio_pin_write_logic
    _application_initialize->_lcd_8bit_initialize
    _lcd_8bit_initialize->_lcd_8bit_send_command
    _keypad_initialize->_gpio_pin__initialize
    _gpio_pin__initialize->_gpio_pin_write_logic
    _Sub_operation->_convert_int_to_string
    _Mult_operation->_convert_int_to_string
    _Div_operation->_convert_int_to_string
    _Add_operation->_convert_int_to_string
    _lcd_8bit_send_string_pos->_lcd_8bits_set_cursor
    _lcd_8bits_set_cursor->_lcd_8bit_send_command
    _lcd_8bit_send_command->_lcd_8bits_sned_enable_signal
    _lcd_8bit_send_string->_lcd_8bit_send_char_data
    _lcd_8bit_send_char_data->_lcd_8bits_sned_enable_signal
    _lcd_8bits_sned_enable_signal->_gpio_pin_write_logic
    _convert_int_to_string->_sprintf
    _sprintf->_vfprintf
    _vfprintf->_vfpfcnvrt
    _vfpfcnvrt->_abs
    _abs->___awmod

Critical Paths under _main in BANK0

    None.

Critical Paths under _main in BANK1

    None.

Critical Paths under _main in BANK2

    None.

Critical Paths under _main in BANK3

    None.

Critical Paths under _main in BANK4

    None.

Critical Paths under _main in BANK5

    None.

Critical Paths under _main in BANK6

    None.

Critical Paths under _main in BANK7

    None.

Critical Paths under _main in BANK8

    None.

Critical Paths under _main in BANK9

    None.

Critical Paths under _main in BANK10

    None.

Critical Paths under _main in BANK11

    None.

Critical Paths under _main in BANK12

    None.

Critical Paths under _main in BANK13

    None.

Critical Paths under _main in BANK14

    None.

Critical Paths under _main in BANK15

    None.

Call Graph Tables:

 ---------------------------------------------------------------------------------
 (Depth) Function   	        Calls       Base Space   Used Autos Params    Refs
 ---------------------------------------------------------------------------------
 (0) _main                                                 2     2      0  138307
                                             49 COMRAM     2     2      0
                      _Add_operation
                      _Div_operation
                     _Mult_operation
                      _Sub_operation
             _application_initialize
                   _keypad_get_value
        _lcd_8bit_send_char_data_pos
              _lcd_8bit_send_command
 ---------------------------------------------------------------------------------
 (1) _lcd_8bit_send_char_data_pos                          5     1      4   17962
                                             22 COMRAM     5     1      4
            _lcd_8bit_send_char_data
               _lcd_8bits_set_cursor
 ---------------------------------------------------------------------------------
 (1) _keypad_get_value                                     8     6      2    4568
                                              8 COMRAM     7     5      2
                _gpio_pin_read_logic
               _gpio_pin_write_logic
 ---------------------------------------------------------------------------------
 (2) _gpio_pin_read_logic                                  7     5      2     308
                                              0 COMRAM     7     5      2
 ---------------------------------------------------------------------------------
 (1) _application_initialize                               1     1      0   17168
                  _keypad_initialize
                _lcd_8bit_initialize
 ---------------------------------------------------------------------------------
 (2) _lcd_8bit_initialize                                  4     3      1   12788
                                             16 COMRAM     4     3      1
               _gpio_pin__initialize
              _lcd_8bit_send_command
 ---------------------------------------------------------------------------------
 (2) _keypad_initialize                                    4     3      1    4377
                                             11 COMRAM     3     2      1
               _gpio_pin__initialize
      _gpio_pin_direction_initialize
 ---------------------------------------------------------------------------------
 (3) _gpio_pin__initialize                                 3     2      1    3762
                                              8 COMRAM     3     2      1
      _gpio_pin_direction_initialize
               _gpio_pin_write_logic
 ---------------------------------------------------------------------------------
 (4) _gpio_pin_direction_initialize                        7     6      1     331
                                              0 COMRAM     7     6      1
 ---------------------------------------------------------------------------------
 (1) _Sub_operation                                        2     2      0   22453
                                             46 COMRAM     2     2      0
              _convert_int_to_string
           _lcd_8bit_send_string_pos
 ---------------------------------------------------------------------------------
 (1) _Mult_operation                                       2     2      0   22453
                                             46 COMRAM     2     2      0
              _convert_int_to_string
           _lcd_8bit_send_string_pos
 ---------------------------------------------------------------------------------
 (1) _Div_operation                                        3     3      0   22691
                                             46 COMRAM     3     3      0
                            ___lbdiv
              _convert_int_to_string
           _lcd_8bit_send_string_pos
 ---------------------------------------------------------------------------------
 (2) ___lbdiv                                              4     3      1     238
                                              0 COMRAM     4     3      1
 ---------------------------------------------------------------------------------
 (1) _Add_operation                                        2     2      0   22453
                                             46 COMRAM     2     2      0
              _convert_int_to_string
           _lcd_8bit_send_string_pos
 ---------------------------------------------------------------------------------
 (2) _lcd_8bit_send_string_pos                             5     1      4   17316
                                             22 COMRAM     5     1      4
               _lcd_8bit_send_string
               _lcd_8bits_set_cursor
 ---------------------------------------------------------------------------------
 (2) _lcd_8bits_set_cursor                                 6     3      3    9245
                                             16 COMRAM     6     3      3
              _lcd_8bit_send_command
 ---------------------------------------------------------------------------------
 (1) _lcd_8bit_send_command                                6     4      2    8559
                                             10 COMRAM     6     4      2
               _gpio_pin_write_logic
       _lcd_8bits_sned_enable_signal
 ---------------------------------------------------------------------------------
 (3) _lcd_8bit_send_string                                 3     1      2    6697
                                             16 COMRAM     3     1      2
            _lcd_8bit_send_char_data
 ---------------------------------------------------------------------------------
 (2) _lcd_8bit_send_char_data                              6     4      2    6431
                                             10 COMRAM     6     4      2
               _gpio_pin_write_logic
       _lcd_8bits_sned_enable_signal
 ---------------------------------------------------------------------------------
 (2) _lcd_8bits_sned_enable_signal                         2     1      1    2984
                                              8 COMRAM     2     1      1
               _gpio_pin_write_logic
 ---------------------------------------------------------------------------------
 (3) _gpio_pin_write_logic                                 8     6      2    2763
                                              0 COMRAM     8     6      2
 ---------------------------------------------------------------------------------
 (2) _convert_int_to_string                                4     1      3    5091
                                             42 COMRAM     4     1      3
                             _memset
                            _sprintf
 ---------------------------------------------------------------------------------
 (3) _sprintf                                             19    15      4    3591
                                             25 COMRAM    17    13      4
                           _vfprintf
 ---------------------------------------------------------------------------------
 (4) _vfprintf                                             4     1      3    2936
                                             21 COMRAM     4     1      3
                          _vfpfcnvrt
 ---------------------------------------------------------------------------------
 (5) _vfpfcnvrt                                           11     8      3    2586
                                             10 COMRAM    11     8      3
                            ___awdiv
                            ___awmod
                                _abs
                              _fputc
 ---------------------------------------------------------------------------------
 (6) _fputc                                                8     5      3     782
                                              0 COMRAM     8     5      3
                              _putch
 ---------------------------------------------------------------------------------
 (7) _putch                                                1     1      0       0
 ---------------------------------------------------------------------------------
 (6) _abs                                                  4     2      2     142
                                              6 COMRAM     4     2      2
                            ___awmod (ARG)
 ---------------------------------------------------------------------------------
 (6) ___awmod                                              6     2      4     448
                                              0 COMRAM     6     2      4
 ---------------------------------------------------------------------------------
 (6) ___awdiv                                              8     4      4     452
                                              0 COMRAM     8     4      4
 ---------------------------------------------------------------------------------
 (3) _memset                                               6     1      5     780
                                              0 COMRAM     6     1      5
 ---------------------------------------------------------------------------------
 Estimated maximum stack depth 7
 ---------------------------------------------------------------------------------

 Call Graph Graphs:

 _main (ROOT)
   _Add_operation
     _convert_int_to_string
       _memset
       _sprintf
         _vfprintf
           _vfpfcnvrt
             ___awdiv
             ___awmod
             _abs
               ___awmod (ARG)
             _fputc
               _putch
     _lcd_8bit_send_string_pos
       _lcd_8bit_send_string
         _lcd_8bit_send_char_data
           _gpio_pin_write_logic
           _lcd_8bits_sned_enable_signal
             _gpio_pin_write_logic
       _lcd_8bits_set_cursor
         _lcd_8bit_send_command
           _gpio_pin_write_logic
           _lcd_8bits_sned_enable_signal
   _Div_operation
     ___lbdiv
     _convert_int_to_string
     _lcd_8bit_send_string_pos
   _Mult_operation
     _convert_int_to_string
     _lcd_8bit_send_string_pos
   _Sub_operation
     _convert_int_to_string
     _lcd_8bit_send_string_pos
   _application_initialize
     _keypad_initialize
       _gpio_pin__initialize
         _gpio_pin_direction_initialize
         _gpio_pin_write_logic
       _gpio_pin_direction_initialize
     _lcd_8bit_initialize
       _gpio_pin__initialize
       _lcd_8bit_send_command
   _keypad_get_value
     _gpio_pin_read_logic
     _gpio_pin_write_logic
   _lcd_8bit_send_char_data_pos
     _lcd_8bit_send_char_data
     _lcd_8bits_set_cursor
   _lcd_8bit_send_command

 Address spaces:
Name               Size   Autos  Total    Cost      Usage
BIGRAM             F7F      0       0      42        0.0%
EEDATA             400      0       0       0        0.0%
BITBANK14          100      0       0      32        0.0%
BANK14             100      0       0      33        0.0%
BITBANK13          100      0       0      30        0.0%
BANK13             100      0       0      31        0.0%
BITBANK12          100      0       0      28        0.0%
BANK12             100      0       0      29        0.0%
BITBANK11          100      0       0      26        0.0%
BANK11             100      0       0      27        0.0%
BITBANK10          100      0       0      24        0.0%
BANK10             100      0       0      25        0.0%
BITBANK9           100      0       0      22        0.0%
BANK9              100      0       0      23        0.0%
BITBANK8           100      0       0      20        0.0%
BANK8              100      0       0      21        0.0%
BITBANK7           100      0       0      18        0.0%
BANK7              100      0       0      19        0.0%
BITBANK6           100      0       0      16        0.0%
BANK6              100      0       0      17        0.0%
BITBANK5           100      0       0      14        0.0%
BANK5              100      0       0      15        0.0%
BITBANK4           100      0       0      12        0.0%
BANK4              100      0       0      13        0.0%
BITBANK3           100      0       0      10        0.0%
BANK3              100      0       0      11        0.0%
BITBANK2           100      0       0       8        0.0%
BANK2              100      0       0       9        0.0%
BITBANK1           100      0       0       6        0.0%
BANK1              100      0       0       7        0.0%
BITBANK15           80      0       0      34        0.0%
BANK15              80      0       0      35        0.0%
BITBANK0            80      0       0       4        0.0%
BANK0               80      0      20       5       25.0%
BITCOMRAM           7F      0       0       0        0.0%
COMRAM              7F     33      7B       1       96.9%
BITBIGSFRhl         47      0       0      37        0.0%
BITBIGSFRllh         F      0       0      38        0.0%
BITBIGSFRhh          D      0       0      36        0.0%
BITBIGSFRlllh        4      0       0      39        0.0%
BITBIGSFRllll        4      0       0      40        0.0%
BIGSFR               0      0       0     200        0.0%
BITSFR               0      0       0     200        0.0%
SFR                  0      0       0     200        0.0%
STACK                0      0       0       2        0.0%
NULL                 0      0       0       0        0.0%
ABS                  0      0      9B      41        0.0%
DATA                 0      0      9B       3        0.0%
CODE                 0      0       0       0        0.0%


Microchip Technology PIC18 Macro Assembler V2.45 build 20230818022343 
Symbol Table                                                                                   Tue Sep 17 16:47:23 2024

                                      l21 1D84                                        l35 18CE  
                            ___awdiv@sign 0006                                       l122 1D24  
                                     l115 1CAE                                       l140 210A  
                                     l108 17EA                                       l135 1FC6  
                                     l311 1EE0                                       l127 20CE  
                                     l305 220A                                       l314 1F2E  
                                     l308 1F7A                                       l317 1E92  
                                     l430 1DE2                                       l167 2012  
                                     l176 21F8                                       l186 1B94  
                                     l365 15F4                                       l278 101A  
                                     l391 1C38                                       l384 1704  
                                     l664 1992                                       l677 1A42  
                                     l839 1E3E                                       _abs 2140  
                                     _off 0074                           ??_Sub_operation 002F  
                                     _ret 007A                                       _str 0072  
                            ___awmod@sign 0006                 ?_lcd_8bit_send_string_pos 0017  
                                     wreg 0FE8                                      l1110 21D2  
            __end_of_lcd_8bit_send_string 1FC8                                      ?_abs 0007  
                                    l1117 213E                                      l1161 2092  
                                    l1155 14CE                                      l1180 1AEC  
                                    l2301 19A6                                      l1165 215A  
                                    l3101 12E8                                      l3021 1016  
                                    l2311 19DA                                      l2303 19AE  
                                    l1191 220C                                      l2231 15F6  
                                    l3111 1304                                      l3103 12F4  
                                    l3031 1060                                      l3023 1028  
                                    l1168 2172                                      l2321 1A16  
                                    l2313 19E2                                      l2305 19B2  
                                    l2401 148A                                      l2233 160A  
                                    l3113 1308                                      l3105 12F8  
                                    l3041 10C0                                      l3033 1076  
                                    l3025 102C                                      l2323 1A1C  
                                    l2315 19EA                                      l2307 19C0  
                                    l2403 14A0                                      l2243 16D8  
                                    l2235 162A                                      l3115 130C  
                                    l3107 12FC                                      l3051 1120  
                                    l3043 10D6                                      l3035 108C  
                                    l3027 103A                                      l2261 18EE  
                                    l2253 18D0                                      l2317 19F8  
                                    l2325 1A22                                      l2309 19C8  
                                    l2341 1A8A                                      l2333 1A44  
                                    l2237 1632                                      l2245 1702  
                                    l3141 1B6C                                      l2421 1562  
                                    l2413 14D0                                      l2501 1DE0  
                                    l3109 1300                                      l3061 1180  
                                    l3053 1136                                      l3045 10EC  
                                    l3037 109A                                      l3029 104A  
                                    l2271 1922                                      l2263 18FC  
                                    l2255 18D4                                      l2327 1A32  
                                    l2319 1A0E                                      l2343 1ABC  
                                    l2335 1A54                                      l2407 14AC  
                                    l3143 16EC                                      l2239 1688  
                                    l2351 21D4                                      l2511 1B10  
                                    l2415 14E4                                      l3071 11E0  
                                    l3063 1196                                      l3055 114C  
                                    l3047 10FA                                      l3039 10AA  
                                    l2281 195C                                      l2273 192A  
                                    l2265 1904                                      l2257 18E2  
                                    l2329 1A3A                                      l2337 1A64  
                                    l2353 21D4                                      l2441 1C62  
                                    l2513 1B28                                      l2505 1AEE  
                                    l2425 15B2                                      l2417 1504  
                                    l3137 128E                                      l3081 1240  
                                    l3073 11F6                                      l3065 11AC  
                                    l3057 115A                                      l3049 110A  
                                    l2291 1982                                      l2283 1964  
                                    l2275 1932                                      l2267 1908  
                                    l2259 18EA                                      l2347 2140  
                                    l2339 1A6E                                      l2371 1352  
                                    l2363 1318                                      l2355 21E0  
                                    l2531 1F98                                      l2451 1C92  
                                    l2435 1C3A                                      l2515 1B40  
                                    l2507 1AF2                                      l3139 15DC  
                                    l2419 150C                                      l2427 15F2  
                                    l3083 125A                                      l3075 120C  
                                    l3067 11BA                                      l3059 116A  
                                    l2541 21A4                                      l2293 198A  
                                    l2285 1966                                      l2277 1940  
                                    l2269 1910                                      l2349 214E  
                                    l2381 13B6                                      l2373 135C  
                                    l2365 133A                                      l2357 21E8  
                                    l2461 1CC4                                      l2533 1FAC  
                                    l2453 1CA2                                      l2437 1C4E  
                                    l2509 1AF8                                      l2517 1B58  
                                    l3085 1262                                      l3093 127A  
                                    l3077 121A                                      l3069 11CA  
                                    l2543 21AC                                      l2287 196C  
                                    l2279 1946                                      l2391 143C  
                                    l2383 13CE                                      l2375 1378  
                                    l2367 1342                                      l2551 2114  
                                    l2359 21F6                                      l2471 1CDC  
                                    l2463 1CCC                                      l2535 1FAE  
                                    l2527 1F7C                                      l2447 1C66  
                                    l2455 1CAC                                      l2439 1C56  
                                    l2519 1B92                                      l2711 1E06  
                                    l2703 1DE6                                      l3087 126A  
                                    l3095 12B4                                      l3079 122A  
                                    l2545 21B6                                      l2289 1972  
                                    l2297 1994                                      l2393 144C  
                                    l2385 13FE                                      l2377 1394  
                                    l2369 134E                                      l2553 211C  
                                    l2473 1D06                                      l2465 1CD8  
                                    l2537 1FC4                                      l2529 1F90  
                                    l2449 1C90                                      l2721 1E32  
                                    l2713 1E08                                      l2705 1DEA  
                                    l2561 1D26                                      l2641 1722  
                                    l3097 12C2                                      l3089 1272  
                                    l2547 21B8                                      l2299 1998  
                                    l2395 145C                                      l2387 141A  
                                    l2379 13AC                                      l2483 2056  
                                    l2555 2124                                      l2475 1D08  
                                    l2459 1CB0                                      l2723 1E36  
                                    l2715 1E16                                      l2707 1DFA  
                                    l2571 1D46                                      l2563 1D3E  
                                    l2651 1746                                      l2643 1736  
                                    l2731 180C                                      l3099 12D2  
                                    l2397 146E                                      l2389 142C  
                                    l2485 205E                                      l2557 2134  
                                    l2549 210C                                      l2477 1D18  
                                    l2717 1E2C                                      l2709 1E02  
                                    l2725 1E3C                                      l2493 1D86  
                                    l2573 1D50                                      l2565 1D42  
                                    l2661 178C                                      l2653 1748  
                                    l2637 1706                                      l2741 1824  
                                    l2733 181C                                      l2821 20AC  
                                    l2399 1488                                      l2487 206E  
                                    l2479 1D22                                      l2719 1E30  
                                    l2495 1D96                                      l2583 1D66  
                                    l2575 1D52                                      l2671 17C2  
                                    l2663 1792                                      l2655 1758  
                                    l2639 171A                                      l2831 2202  
                                    l2591 1BAA                                      l2751 1838  
                                    l2735 1820                                      l2823 20CC  
                                    l2489 208A                                      l2681 20D0  
                                    l2833 1F30                                      l2841 1E94  
                                    l2497 1DB6                                      l2585 1D72  
                                    l2577 1D62                                      l2673 17CE  
                                    l2665 179E                                      l2657 1766  
                                    l2649 173A                                      l2593 1BBA  
                                    l2753 1848                                      l2729 17EC  
                                    l2817 2094                                      l2691 1FC8  
                                    l2683 20E0                                      l2835 1F48  
                                    l2851 1F06                                      l2843 1EAC  
                                    l2499 1DBE                                      l2587 1D74  
                                    l2675 17DA                                      l2667 17AA  
                                    l2659 1772                                      l2827 21FA  
                                    l2595 1BDA                                      l2771 18AC  
                                    l2763 186A                                      l2755 1856  
                                    l2747 1828                                      l2819 20A4  
                                    l2693 1FDC                                      l2685 20E8  
                                    l2837 1F52                                      l2861 1E7C  
                                    l2853 1F18                                      l2845 1EB8  
                                    l2669 17B6                                      l2677 17E8  
                                    l2829 21FA                                      l2597 1BE2  
                                    l2589 1B96                                      l2773 18BC  
                                    l2765 187A                                      l2757 1866  
                                    l2749 1836                                      l2695 1FE4  
                                    l2687 2108                                      l2839 1F64  
                                    l2855 1E40                                      l2847 1ECA  
                                    l2599 1C36                                      l2775 18BE  
                                    l2767 188A                                      l2697 1FFC  
                                    l2857 1E58                                      l2849 1EE2  
                                    l2769 18AA                                      l2699 2010  
                                    l2859 1E6A                                      STR_1 1011  
                                    STR_3 1011                                      u1110 160A  
                                    u1111 1606                                      u1200 1982  
                                    u1120 162A                                      u2000 116A  
                                    u1201 197E                                      u1121 1626  
                                    u2001 1166                                      u1210 19A6  
                                    u2010 11CA                                      u1211 19A2  
                                    u2011 11C6                                      u1220 19C0  
                                    u1300 1ABC                                      u2020 122A  
                                    u1221 19BC                                      u1301 1AB8  
                                    u2021 1226                                      u1150 18E2  
                                    u1230 19DA                                      u1310 214E  
                                    u1134 1650                                      u2030 12D2  
                                    u1151 18DE                                      u1231 19D6  
                                    u1311 214A                                      u1135 164C  
                                    u2031 12CE                                      u1160 18FC  
                                    u1240 19F8                                      u1400 145C  
                                    u1320 133A                                      u1144 16A6  
      lcd_8bit_send_command@l_pin_counter 0010                                      u1161 18F8  
                                    u1241 19F4                                      u1401 1458  
                                    u1321 1336                                      u1145 16A2  
                                    u1170 1922                                      u1250 1A0E  
                                    u1410 149C                                      u1330 1378  
                                    u1171 191E                                      u1251 1A0A  
                                    u1411 1498                                      u1331 1374  
                                    u2107 1174                                      u1180 1940  
                                    u1260 1A32                                      u1340 1394  
                                    u1500 1CA2                                      u1420 14E4  
                                    u1181 193C                                      u1261 1A2E  
                                    u1341 1390                                      u1501 1C9E  
                                    u1421 14E0                                      u2117 11A0  
                                    _LATA 0F89                                      u1190 195C  
                                    u1270 1A54                                      u1350 13CA  
                                    u1510 1CC4                                      u1430 1504  
                                    _LATB 0F8A                                      u1191 1958  
                                    u1271 1A50                                      u1351 13C4  
                                    u2207 21E2                                      u1511 1CC0  
                                    u1431 1500                                      u2127 11D4  
                                    u2047 1054                                      _LATC 0F8B  
                                    u1280 1A64                                      u1360 13CC  
                                    u1600 1D3E                                      _LATD 0F8C  
                                    u1281 1A60                                      u1601 1D3A  
                                    u2137 1200                                      u2057 1080  
                                    _LATE 0F8D                                      u1290 1A8A  
                                    u1370 142C                                      u1530 1D18  
                                    u1610 1D62                                      u1291 1A86  
                                    u1371 1428                                      u1531 1D14  
                                    u1611 1D5E                                      u2147 1234  
                                    u2067 10B4                                      u1380 143C  
                                    u1540 208A                                      u1524 1CF6  
                                    u1700 20E0                                      u1460 15C8  
                                    u1444 152A                                      u1620 1D84  
                                    u1381 1438                                      u1541 2086  
                                    u1525 1CF2                                      u1701 20DC  
                                    u1461 15C2                                      u1445 1526  
                                    u1621 1D80                                      u2157 12DC  
                                    u2077 10E0                                      u1390 144C  
                                    u1710 1FDC                                      u1470 15CA  
                                    u1454 1580                                      u1550 1D96  
                                    u1630 1BAA                                      u1391 1448  
                                    u1711 1FD8                                      u1455 157C  
                                    u1551 1D92                                      u1631 1BA6  
                                    u2167 185C                                      u2087 1114  
                                    u1480 1C4E                                      u1720 1DFA  
                                    u1560 1DB6                                      u1640 1BBA  
                                    u1800 18CE                                      u1481 1C4A  
                                    u1721 1DF6                                      u1561 1DB2  
                                    u2177 175E                                      u1641 1BB6  
                                    u1801 18CA                                      u2097 1140  
                                    u1570 1F90                                      u1730 1E16  
                                    u1650 1BDA                                      u1571 1F8C  
                                    u1731 1E12                                      u2187 1778  
                                    u1651 1BD6                                      u1580 1FC4  
                                    u1740 1E2C                                      u1581 1FC0  
                                    u1741 1E28                                      u2197 178E  
                                    u1590 21D2                                      u1494 1C80  
                                    u1750 180C                                      u1591 21CE  
                                    u1495 1C7C                                      u1751 1808  
                                    u1680 171A                                      u1664 1C2A  
                                    u1760 181C                                      u1681 1716  
                                    u1665 1C26                                      u1761 1818  
                                    u1690 1758                                      u1770 1848  
                                    u1850 20A4                                      u1691 1754  
                                    u1771 1844                                      u1851 20A0  
                                    u1780 188A                                      u1781 1886  
                                    u1790 18BC                                      u1791 18B8  
                                    u1970 104A                                      u1971 1046  
                                    u1980 10AA                                      u1981 10A6  
                                    u1990 110A                                      u1991 1106  
                                    abs@a 0007                                      _dbuf 0080  
          gpio_pin_read_logic@_pin_config 0001                                      _main 1016  
                                    _prec 006C           gpio_pin__initialize@_pin_config 0009  
                                    fsr1h 0FE2                                      fsr2h 0FDA  
                                    indf1 0FE7                                      indf2 0FDF  
                                    fsr1l 0FE1                                      fsr2l 0FD9  
                                    prodh 0FF4                                      prodl 0FF3  
                                    start 0000             __end_of_lcd_8bit_send_command 1CB0  
                            ___param_bank 0000                                     ??_abs 0009  
                    _gpio_pin_write_logic 15F6                             _Add_operation 1F30  
                                   ?_main 0001                  ??_application_initialize 0015  
                         __end_of___awdiv 1994                           __end_of___lbdiv 1E40  
                                   _EEADR 0FA9                           __end_of___awmod 1A44  
                         ___awdiv@divisor 0003                           ___awdiv@counter 0005  
                            vfpfcnvrt@fmt 000C                                     _PORTA 0F80  
                                   _PORTB 0F81                                     _PORTC 0F82  
                                   _PORTD 0F83                                     _PORTE 0F84  
                                   _TRISA 0F92                                     _TRISB 0F93  
                                   _TRISC 0F94                                     _TRISD 0F95  
                                   _TRISE 0F96                  __end_of_keypad_get_value 18D0  
                 lcd_8bits_set_cursor@lcd 0011                   lcd_8bits_set_cursor@ret 0016  
                                   _lcd_2 0052                   lcd_8bits_set_cursor@row 0012  
                                   _flags 0070                                     _fputc 1A44  
                                   _value 0071                  ?_lcd_8bit_send_char_data 000B  
     __end_of_lcd_8bit_send_char_data_pos 20D0               _lcd_8bit_send_char_data_pos 2094  
                                   _width 006A                                     _putch 220C  
                                   tablat 0FF5                                     status 0FD8  
                         __end_of_sprintf 2140                           ___lbdiv@divisor 0001  
                         ___lbdiv@counter 0003                         Sub_operation@num1 002F  
                       Sub_operation@num2 0030         keypad_get_value@l_columns_counter 000F  
          ?_gpio_pin_direction_initialize 0001             ??_lcd_8bit_send_char_data_pos 001B  
                         __initialization 2014                              __end_of_main 1318  
                   ?_gpio_pin_write_logic 0001                            ?_Add_operation 0001  
                gpio_pin_read_logic@logic 0002                                    ??_main 0032  
                           __activetblptr 0002                                    ?_fputc 0001  
                                  _EEADRH 0FAA                                    _EEDATA 0FA8  
                                  _EECON2 0FA7                          ___awdiv@dividend 0001  
                                  ?_putch 0001                             vfpfcnvrt@done 000F  
               keypad_get_value@l_counter 000D                              vfprintf@cfmt 0019  
                               ??___awdiv 0005                                 ??___lbdiv 0002  
                               ??___awmod 0005            ??_lcd_8bits_sned_enable_signal 000A  
                    _lcd_8bit_send_string 1F7C                                    _memset 21A4  
                                  clear_0 203A                                    clear_1 2046  
                        ___awdiv@quotient 0007                           ___awmod@divisor 0003  
                                  isa$std 0001                                    _result 006E  
                         ___awmod@counter 0005            lcd_8bit_send_char_data_pos@lcd 0017  
          lcd_8bit_send_char_data_pos@ret 001B               lcd_8bit_send_string_pos@lcd 0017  
          lcd_8bit_send_char_data_pos@row 0018               lcd_8bit_send_string_pos@ret 001B  
             lcd_8bit_send_string_pos@row 0018               lcd_8bit_send_string_pos@str 001A  
                                  fputc@c 0001                              __pdataCOMRAM 0034  
                            __mediumconst 0000                                    tblptrh 0FF7  
                                  tblptrl 0FF6                                    tblptru 0FF8  
                                  putch@c 0001                          __end_of_vfprintf 2094  
                               ??_sprintf 001E                          ___lbdiv@dividend 0002  
                 ??_convert_int_to_string 002E           lcd_8bits_sned_enable_signal@lcd 0009  
         lcd_8bits_sned_enable_signal@ret 000A                                __accesstop 0080  
                 __end_of__initialization 204C                             ___rparam_used 0001  
                         ??_Add_operation 002F                    ??_gpio_pin_write_logic 0003  
                          __pcstackCOMRAM 0001                             __end_of_fputc 1AEE  
                   ?_lcd_8bit_send_string 0011              convert_short_to_string@F3208 0064  
                           __end_of_putch 220E                          ___lbdiv@quotient 0004  
                   __end_of_Div_operation 1E94  gpio_pin_direction_initialize@_pin_config 0001  
                                 ??_fputc 0004                                   ??_putch 0001  
                              __pbssBANK0 0080                   gpio_pin__initialize@ret 000B  
                  _application_initialize 21FA                                __pnvCOMRAM 007A  
                  lcd_8bit_initialize@lcd 0011                    lcd_8bit_initialize@ret 0014  
                                 ?_memset 0001                     __end_of_Sub_operation 1EE2  
                       ?_keypad_get_value 0009                        ??_keypad_get_value 000B  
                              _btn_values 1001    lcd_8bit_initialize@l_data_pins_counter 0013  
                                 __Hparam 0000                                   __Lparam 0000  
                  ??_lcd_8bit_send_string 0013                     _lcd_8bit_send_command 1C3A  
                                 ___awdiv 18D0                       _gpio_pin_read_logic 1B96  
                                 ___lbdiv 1DE4                                   ___awmod 1994  
                               ?_vfprintf 0016          keypad_initialize@columns_counter 000E  
                            __psmallconst 1000                                   __pcinit 2014  
                                 __ramtop 1000                  _lcd_8bit_send_string_pos 20D0  
                                 __ptext0 1016                                   __ptext1 2094  
                                 __ptext2 17EC                                   __ptext3 1B96  
                                 __ptext4 21FA                                   __ptext5 1706  
                                 __ptext6 1D26                                   __ptext7 1D86  
                                 __ptext8 14D0                                   __ptext9 1E94  
                                 _lat_reg 003E           ??_gpio_pin_direction_initialize 0002  
                                 _key_pad 005C                          ___awmod@dividend 0001  
                          _Mult_operation 1EE2              __end_of_gpio_pin__initialize 1DE4  
                    ?_gpio_pin_read_logic 0001           lcd_8bit_send_char_data_pos@data 001A  
                                 _sprintf 210C                      end_of_initialization 204C  
                                 fputc@fp 0003                                   memset@c 0002  
                                 memset@n 0004                                   memset@p 0006  
                           __Lmediumconst 0000                         Div_operation@num1 0030  
                       Div_operation@num2 0031                         __end_of_vfpfcnvrt 14D0  
                                 postdec1 0FE5                                   postdec2 0FDD  
                      Mult_operation@num1 002F                        Mult_operation@num2 0030  
                                 postinc0 0FEE                                   postinc1 0FE6  
                                 postinc2 0FDE                          vfpfcnvrt@convarg 0011  
                              ??_vfprintf 0019              __end_of_lcd_8bits_set_cursor 1B96  
                  __end_of_Mult_operation 1F30              keypad_get_value@column_logic 000C  
                   ??_gpio_pin_read_logic 0003             __end_of_convert_int_to_string 2014  
                  ?_lcd_8bit_send_command 000B            lcd_8bit_send_string_pos@column 0019  
                   keypad_get_value@value 000A                               vfpfcnvrt@ap 000D  
                             vfpfcnvrt@cp 0010                               vfpfcnvrt@fp 000B  
                           __pidataCOMRAM 2174                            __end_of_memset 21D4  
                         ?_Mult_operation 0001                       start_initialization 2014  
                     _lcd_8bit_initialize 1706                               __end_of_abs 2174  
   __end_of_gpio_pin_direction_initialize 15F6             _gpio_pin_direction_initialize 14D0  
                 ?_application_initialize 0001      __end_of_lcd_8bits_sned_enable_signal 21FA  
            _lcd_8bits_sned_enable_signal 21D4                lcd_8bits_set_cursor@column 0013  
                    ?_lcd_8bit_initialize 0011                   _lcd_8bit_send_char_data 1CB0  
                             vfprintf@fmt 0017                     __end_of_Add_operation 1F7C  
                    _gpio_pin__initialize 1D86                                  ??_memset 0006  
                              memset@dest 0001                  lcd_8bit_send_command@lcd 000B  
                lcd_8bit_send_command@ret 000F                convert_int_to_string@value 002B  
                             __pbssCOMRAM 0064            __end_of_application_initialize 220C  
                     _assignment_operator 0075              ?_lcd_8bit_send_char_data_pos 0017  
           ?_lcd_8bits_sned_enable_signal 0009                      _lcd_8bits_set_cursor 1AEE  
                   ??_lcd_8bit_initialize 0012                ??_lcd_8bit_send_string_pos 001B  
           keypad_initialize@rows_counter 000D               lcd_8bit_send_char_data@data 000C  
         gpio_pin_write_logic@_pin_config 0001                                  ?___awdiv 0001  
                                ?___lbdiv 0001                     ?_gpio_pin__initialize 0009  
                                ?___awmod 0001                 gpio_pin_write_logic@logic 0002  
                             __smallconst 1000                                  ?_sprintf 001A  
               ??_lcd_8bit_send_char_data 000D                     ?_lcd_8bits_set_cursor 0011  
        gpio_pin_direction_initialize@ret 0007      lcd_8bit_send_char_data@l_pin_counter 0010  
                               _vfpfcnvrt 1318                             _Div_operation 1E40  
       lcd_8bit_send_char_data_pos@column 0019                                vfpfcnvrt@c 0015  
                 gpio_pin_write_logic@ret 0008                                 copy_data0 2028  
                       _keypad_initialize 1D26                        ?_keypad_initialize 000C  
                  gpio_pin_read_logic@ret 0007                   ??_lcd_8bit_send_command 000D  
                              _EECON1bits 0FA6                         Add_operation@num1 002F  
                       Add_operation@num2 0030                                  __Hrparam 0000  
                              vfprintf@ap 0018                                  __Lrparam 0000  
                              vfprintf@fp 0016                    ??_gpio_pin__initialize 000A  
                     ??_keypad_initialize 000D                          ??_Mult_operation 002F  
                              ?_vfpfcnvrt 000B                            ?_Div_operation 0001  
         __end_of_lcd_8bit_send_char_data 1D26                        __end_of_btn_values 1011  
             __end_of_gpio_pin_read_logic 1C3A               keypad_get_value@_keypad_obj 0009  
                              sprintf@fmt 001B                lcd_8bit_send_char_data@lcd 000B  
              lcd_8bit_send_char_data@ret 000F                 __end_of_keypad_initialize 1D86  
                                __ptext10 1EE2                                  __ptext11 1E40  
                                __ptext20 15F6                                  __ptext12 1DE4  
                                __ptext21 1FC8                                  __ptext13 1F30  
                                __ptext30 21A4                                  __ptext22 210C  
                                __ptext14 20D0                                  __ptext23 2056  
                                __ptext15 1AEE                                  __ptext24 1318  
                                __ptext16 1C3A                                  __ptext25 1A44  
                                __ptext17 1F7C                                  __ptext26 220C  
                                __ptext18 1CB0                                  __ptext27 2140  
                                __ptext19 21D4                                  __ptext28 1994  
                                __ptext29 18D0                             _Sub_operation 1E94  
                             _num1_digit1 007B                               _num1_digit2 0078  
                             _num2_digit1 0079                               _num2_digit2 0077  
                  ??_lcd_8bits_set_cursor 0014          __end_of_lcd_8bit_send_string_pos 210C  
                   _convert_int_to_string 1FC8                          _keypad_get_value 17EC  
                                _operator 0076                                  isa$xinst 0000  
                                _port_reg 0034                                  _vfprintf 2056  
                                _tris_reg 0048                                _INTCONbits 0FF2  
                          ?_Sub_operation 0001            keypad_get_value@l_rows_counter 000E  
            __end_of_gpio_pin_write_logic 1706                                 sprintf@ap 001E  
            keypad_initialize@_keypad_obj 000C                           ??_Div_operation 002F  
                             ??_vfpfcnvrt 000E                                  sprintf@f 001F  
                                sprintf@s 001A                  convert_int_to_string@ret 002E  
                convert_int_to_string@str 002D                   lcd_8bit_send_string@lcd 0011  
                 lcd_8bit_send_string@ret 0013                   lcd_8bit_send_string@str 0012  
             __end_of_lcd_8bit_initialize 17EC              lcd_8bit_send_command@command 000C  
                  ?_convert_int_to_string 002B  
